

Microchip Technology PIC LITE Macro Assembler V1.33 build 59893 
                                                                                               Mon Nov 10 14:03:59 2014

Microchip Technology Omniscient Code Generator (Lite mode) build 59893
     1                           	processor	16F877A
     2                           	opt	pw 120
     3                           	opt	lm
     4                           	psect	idataBANK0,global,class=CODE,delta=2
     5                           	psect	strings,global,class=STRING,delta=2
     6                           	psect	cinit,global,class=CODE,merge=1,delta=2
     7                           	psect	bssBANK0,global,class=BANK0,space=1,delta=1
     8                           	psect	dataBANK0,global,class=BANK0,space=1,delta=1
     9                           	psect	clrtext,global,class=CODE,delta=2
    10                           	psect	cstackCOMMON,global,class=COMMON,space=1,delta=1
    11                           	psect	cstackBANK0,global,class=BANK0,space=1,delta=1
    12                           	psect	maintext,global,class=CODE,split=1,delta=2
    13                           	psect	text1,local,class=CODE,merge=1,delta=2
    14                           	psect	text2,local,class=CODE,merge=1,delta=2
    15                           	psect	text3,local,class=CODE,merge=1,delta=2
    16                           	psect	text4,local,class=CODE,merge=1,delta=2
    17                           	psect	text5,local,class=CODE,merge=1,delta=2
    18                           	psect	text6,local,class=CODE,merge=1,delta=2
    19                           	psect	text7,local,class=CODE,merge=1,delta=2
    20                           	psect	text8,local,class=CODE,merge=1,delta=2
    21                           	psect	text9,local,class=CODE,merge=1,delta=2
    22                           	psect	text10,local,class=CODE,merge=1,delta=2
    23                           	psect	text11,local,class=CODE,merge=1,delta=2
    24                           	psect	text12,local,class=CODE,merge=1,delta=2
    25                           	psect	text13,local,class=CODE,merge=1,delta=2
    26                           	psect	text14,local,class=CODE,merge=1,delta=2
    27                           	psect	text15,local,class=CODE,merge=1,delta=2
    28                           	psect	text16,local,class=CODE,merge=1,delta=2
    29                           	psect	text17,local,class=CODE,merge=1,delta=2
    30                           	psect	text18,local,class=CODE,merge=1,delta=2
    31                           	psect	text19,local,class=CODE,merge=1,delta=2
    32                           	psect	text20,local,class=CODE,merge=1,delta=2
    33                           	psect	text21,local,class=CODE,merge=1,delta=2
    34                           	psect	text22,local,class=CODE,merge=1,delta=2
    35                           	psect	text23,local,class=CODE,merge=1,delta=2
    36                           	dabs	1,0x7E,2
    37  0000                     	;# 
    38  0001                     	;# 
    39  0002                     	;# 
    40  0003                     	;# 
    41  0004                     	;# 
    42  0005                     	;# 
    43  0006                     	;# 
    44  0007                     	;# 
    45  0008                     	;# 
    46  0009                     	;# 
    47  000A                     	;# 
    48  000B                     	;# 
    49  000C                     	;# 
    50  000D                     	;# 
    51  000E                     	;# 
    52  000E                     	;# 
    53  000F                     	;# 
    54  0010                     	;# 
    55  0011                     	;# 
    56  0012                     	;# 
    57  0013                     	;# 
    58  0014                     	;# 
    59  0015                     	;# 
    60  0015                     	;# 
    61  0016                     	;# 
    62  0017                     	;# 
    63  0018                     	;# 
    64  0019                     	;# 
    65  001A                     	;# 
    66  001B                     	;# 
    67  001B                     	;# 
    68  001C                     	;# 
    69  001D                     	;# 
    70  001E                     	;# 
    71  001F                     	;# 
    72  0081                     	;# 
    73  0085                     	;# 
    74  0086                     	;# 
    75  0087                     	;# 
    76  0088                     	;# 
    77  0089                     	;# 
    78  008C                     	;# 
    79  008D                     	;# 
    80  008E                     	;# 
    81  0091                     	;# 
    82  0092                     	;# 
    83  0093                     	;# 
    84  0094                     	;# 
    85  0098                     	;# 
    86  0099                     	;# 
    87  009C                     	;# 
    88  009D                     	;# 
    89  009E                     	;# 
    90  009F                     	;# 
    91  010C                     	;# 
    92  010D                     	;# 
    93  010E                     	;# 
    94  010F                     	;# 
    95  018C                     	;# 
    96  018D                     	;# 
    97  0000                     	;# 
    98  0001                     	;# 
    99  0002                     	;# 
   100  0003                     	;# 
   101  0004                     	;# 
   102  0005                     	;# 
   103  0006                     	;# 
   104  0007                     	;# 
   105  0008                     	;# 
   106  0009                     	;# 
   107  000A                     	;# 
   108  000B                     	;# 
   109  000C                     	;# 
   110  000D                     	;# 
   111  000E                     	;# 
   112  000E                     	;# 
   113  000F                     	;# 
   114  0010                     	;# 
   115  0011                     	;# 
   116  0012                     	;# 
   117  0013                     	;# 
   118  0014                     	;# 
   119  0015                     	;# 
   120  0015                     	;# 
   121  0016                     	;# 
   122  0017                     	;# 
   123  0018                     	;# 
   124  0019                     	;# 
   125  001A                     	;# 
   126  001B                     	;# 
   127  001B                     	;# 
   128  001C                     	;# 
   129  001D                     	;# 
   130  001E                     	;# 
   131  001F                     	;# 
   132  0081                     	;# 
   133  0085                     	;# 
   134  0086                     	;# 
   135  0087                     	;# 
   136  0088                     	;# 
   137  0089                     	;# 
   138  008C                     	;# 
   139  008D                     	;# 
   140  008E                     	;# 
   141  0091                     	;# 
   142  0092                     	;# 
   143  0093                     	;# 
   144  0094                     	;# 
   145  0098                     	;# 
   146  0099                     	;# 
   147  009C                     	;# 
   148  009D                     	;# 
   149  009E                     	;# 
   150  009F                     	;# 
   151  010C                     	;# 
   152  010D                     	;# 
   153  010E                     	;# 
   154  010F                     	;# 
   155  018C                     	;# 
   156  018D                     	;# 
   157                           
   158                           	psect	idataBANK0
   159  0EA4                     __pidataBANK0:	
   160                           
   161                           ;initializer for _ref
   162  0EA4  343D               	retlw	61
   163  0EA5  349C               	retlw	156
   164  0EA6  3441               	retlw	65
   165                           
   166                           	psect	strings
   167  0003                     __pstrings:	
   168  0003                     stringtab:	
   169  0003                     __stringtab:	
   170  0003                     stringcode:	
   171                           ;	String table - string pointers are 1 byte each
   172                           
   173  0003                     stringdir:	
   174  0003  3000               	movlw	high stringdir
   175  0004  008A               	movwf	10
   176  0005  0804               	movf	4,w
   177  0006  0A84               	incf	4,f
   178  0007  0782               	addwf	2,f
   179  0008                     __stringbase:	
   180  0008  3400               	retlw	0
   181  0009                     __end_of__stringtab:	
   182  0009                     _hexpowers:	
   183  0009  3401               	retlw	1
   184  000A  3400               	retlw	0
   185  000B  3410               	retlw	16
   186  000C  3400               	retlw	0
   187  000D  3400               	retlw	0
   188  000E  3401               	retlw	1
   189  000F  3400               	retlw	0
   190  0010  3410               	retlw	16
   191  0011                     __end_of_hexpowers:	
   192  001F                     _ADCON0	set	31
   193  001E                     _ADRESH	set	30
   194  0008                     _PORTD	set	8
   195  001A                     _RCREG	set	26
   196  0013                     _SSPBUF	set	19
   197  0014                     _SSPCON	set	20
   198  0019                     _TXREG	set	25
   199  00C4                     _CREN	set	196
   200  00FA                     _GO	set	250
   201  0029                     _RA1	set	41
   202  002A                     _RA2	set	42
   203  002B                     _RA3	set	43
   204  002C                     _RA4	set	44
   205  0065                     _RCIF	set	101
   206  0040                     _RD0	set	64
   207  0041                     _RD1	set	65
   208  00C7                     _SPEN	set	199
   209  0063                     _SSPIF	set	99
   210  0064                     _TXIF	set	100
   211  009F                     _ADCON1	set	159
   212  009E                     _ADRESL	set	158
   213  0099                     _SPBRG	set	153
   214  0093                     _SSPADD	set	147
   215  0094                     _SSPSTAT	set	148
   216  0085                     _TRISA	set	133
   217  0088                     _TRISD	set	136
   218  0098                     _TXSTA	set	152
   219  048D                     _ACKDT	set	1165
   220  048C                     _ACKEN	set	1164
   221  04C2                     _BRGH	set	1218
   222  048A                     _PEN	set	1162
   223  048B                     _RCEN	set	1163
   224  0489                     _RSEN	set	1161
   225  0488                     _SEN	set	1160
   226  043B                     _TRISC3	set	1083
   227  043C                     _TRISC4	set	1084
   228  043E                     _TRISC6	set	1086
   229  043F                     _TRISC7	set	1087
   230  04C5                     _TXEN	set	1221
   231  0011                     __stringdata:	
   232  0011                     STR_6:	
   233  0011  344F               	retlw	79	;'O'
   234  0012  3475               	retlw	117	;'u'
   235  0013  3474               	retlw	116	;'t'
   236  0014  3470               	retlw	112	;'p'
   237  0015  3475               	retlw	117	;'u'
   238  0016  3474               	retlw	116	;'t'
   239  0017  3420               	retlw	32	;' '
   240  0018  3466               	retlw	102	;'f'
   241  0019  3472               	retlw	114	;'r'
   242  001A  346F               	retlw	111	;'o'
   243  001B  346D               	retlw	109	;'m'
   244  001C  3420               	retlw	32	;' '
   245  001D  3450               	retlw	80	;'P'
   246  001E  346F               	retlw	111	;'o'
   247  001F  3474               	retlw	116	;'t'
   248  0020  3465               	retlw	101	;'e'
   249  0021  346E               	retlw	110	;'n'
   250  0022  3474               	retlw	116	;'t'
   251  0023  3469               	retlw	105	;'i'
   252  0024  346F               	retlw	111	;'o'
   253  0025  346D               	retlw	109	;'m'
   254  0026  3465               	retlw	101	;'e'
   255  0027  3474               	retlw	116	;'t'
   256  0028  3465               	retlw	101	;'e'
   257  0029  3472               	retlw	114	;'r'
   258  002A  3420               	retlw	32	;' '
   259  002B  3469               	retlw	105	;'i'
   260  002C  3473               	retlw	115	;'s'
   261  002D  3420               	retlw	32	;' '
   262  002E  343A               	retlw	58	;':'
   263  002F  3400               	retlw	0
   264  0030                     STR_1:	
   265  0030  3445               	retlw	69	;'E'
   266  0031  346E               	retlw	110	;'n'
   267  0032  3474               	retlw	116	;'t'
   268  0033  3465               	retlw	101	;'e'
   269  0034  3472               	retlw	114	;'r'
   270  0035  3420               	retlw	32	;' '
   271  0036  3444               	retlw	68	;'D'
   272  0037  3461               	retlw	97	;'a'
   273  0038  3474               	retlw	116	;'t'
   274  0039  3465               	retlw	101	;'e'
   275  003A  3420               	retlw	32	;' '
   276  003B  3469               	retlw	105	;'i'
   277  003C  346E               	retlw	110	;'n'
   278  003D  3420               	retlw	32	;' '
   279  003E  3474               	retlw	116	;'t'
   280  003F  3468               	retlw	104	;'h'
   281  0040  3465               	retlw	101	;'e'
   282  0041  3420               	retlw	32	;' '
   283  0042  3466               	retlw	102	;'f'
   284  0043  346F               	retlw	111	;'o'
   285  0044  3472               	retlw	114	;'r'
   286  0045  346D               	retlw	109	;'m'
   287  0046  3461               	retlw	97	;'a'
   288  0047  3474               	retlw	116	;'t'
   289  0048  3465               	retlw	101	;'e'
   290  0049  3400               	retlw	0
   291  004A                     STR_10:	
   292  004A  3442               	retlw	66	;'B'
   293  004B  3475               	retlw	117	;'u'
   294  004C  3474               	retlw	116	;'t'
   295  004D  3474               	retlw	116	;'t'
   296  004E  346F               	retlw	111	;'o'
   297  004F  346E               	retlw	110	;'n'
   298  0050  3420               	retlw	32	;' '
   299  0051  3431               	retlw	49	;'1'
   300  0052  3420               	retlw	32	;' '
   301  0053  3469               	retlw	105	;'i'
   302  0054  3473               	retlw	115	;'s'
   303  0055  3420               	retlw	32	;' '
   304  0056  3463               	retlw	99	;'c'
   305  0057  346C               	retlw	108	;'l'
   306  0058  346F               	retlw	111	;'o'
   307  0059  3473               	retlw	115	;'s'
   308  005A  3465               	retlw	101	;'e'
   309  005B  3400               	retlw	0
   310  005C                     STR_13:	
   311  005C  3442               	retlw	66	;'B'
   312  005D  3475               	retlw	117	;'u'
   313  005E  3474               	retlw	116	;'t'
   314  005F  3474               	retlw	116	;'t'
   315  0060  346F               	retlw	111	;'o'
   316  0061  346E               	retlw	110	;'n'
   317  0062  3420               	retlw	32	;' '
   318  0063  3432               	retlw	50	;'2'
   319  0064  3420               	retlw	32	;' '
   320  0065  3469               	retlw	105	;'i'
   321  0066  3473               	retlw	115	;'s'
   322  0067  3420               	retlw	32	;' '
   323  0068  3463               	retlw	99	;'c'
   324  0069  346C               	retlw	108	;'l'
   325  006A  346F               	retlw	111	;'o'
   326  006B  3473               	retlw	115	;'s'
   327  006C  3465               	retlw	101	;'e'
   328  006D  3400               	retlw	0
   329  006E                     STR_16:	
   330  006E  3442               	retlw	66	;'B'
   331  006F  3475               	retlw	117	;'u'
   332  0070  3474               	retlw	116	;'t'
   333  0071  3474               	retlw	116	;'t'
   334  0072  346F               	retlw	111	;'o'
   335  0073  346E               	retlw	110	;'n'
   336  0074  3420               	retlw	32	;' '
   337  0075  3433               	retlw	51	;'3'
   338  0076  3420               	retlw	32	;' '
   339  0077  3469               	retlw	105	;'i'
   340  0078  3473               	retlw	115	;'s'
   341  0079  3420               	retlw	32	;' '
   342  007A  3463               	retlw	99	;'c'
   343  007B  346C               	retlw	108	;'l'
   344  007C  346F               	retlw	111	;'o'
   345  007D  3473               	retlw	115	;'s'
   346  007E  3465               	retlw	101	;'e'
   347  007F  3400               	retlw	0
   348  0080                     STR_19:	
   349  0080  3442               	retlw	66	;'B'
   350  0081  3475               	retlw	117	;'u'
   351  0082  3474               	retlw	116	;'t'
   352  0083  3474               	retlw	116	;'t'
   353  0084  346F               	retlw	111	;'o'
   354  0085  346E               	retlw	110	;'n'
   355  0086  3420               	retlw	32	;' '
   356  0087  3434               	retlw	52	;'4'
   357  0088  3420               	retlw	32	;' '
   358  0089  3469               	retlw	105	;'i'
   359  008A  3473               	retlw	115	;'s'
   360  008B  3420               	retlw	32	;' '
   361  008C  3463               	retlw	99	;'c'
   362  008D  346C               	retlw	108	;'l'
   363  008E  346F               	retlw	111	;'o'
   364  008F  3473               	retlw	115	;'s'
   365  0090  3465               	retlw	101	;'e'
   366  0091  3400               	retlw	0
   367  0092                     STR_21:	
   368  0092  3430               	retlw	48	;'0'
   369  0093  3431               	retlw	49	;'1'
   370  0094  3432               	retlw	50	;'2'
   371  0095  3433               	retlw	51	;'3'
   372  0096  3434               	retlw	52	;'4'
   373  0097  3435               	retlw	53	;'5'
   374  0098  3436               	retlw	54	;'6'
   375  0099  3437               	retlw	55	;'7'
   376  009A  3438               	retlw	56	;'8'
   377  009B  3439               	retlw	57	;'9'
   378  009C  3461               	retlw	97	;'a'
   379  009D  3462               	retlw	98	;'b'
   380  009E  3463               	retlw	99	;'c'
   381  009F  3464               	retlw	100	;'d'
   382  00A0  3465               	retlw	101	;'e'
   383  00A1  3466               	retlw	102	;'f'
   384  00A2  3400               	retlw	0
   385  00A3                     STR_9:	
   386  00A3  3442               	retlw	66	;'B'
   387  00A4  3475               	retlw	117	;'u'
   388  00A5  3474               	retlw	116	;'t'
   389  00A6  3474               	retlw	116	;'t'
   390  00A7  346F               	retlw	111	;'o'
   391  00A8  346E               	retlw	110	;'n'
   392  00A9  3420               	retlw	32	;' '
   393  00AA  3431               	retlw	49	;'1'
   394  00AB  3420               	retlw	32	;' '
   395  00AC  3469               	retlw	105	;'i'
   396  00AD  3473               	retlw	115	;'s'
   397  00AE  3420               	retlw	32	;' '
   398  00AF  346F               	retlw	111	;'o'
   399  00B0  3470               	retlw	112	;'p'
   400  00B1  3465               	retlw	101	;'e'
   401  00B2  346E               	retlw	110	;'n'
   402  00B3  3400               	retlw	0
   403  00B4                     STR_12:	
   404  00B4  3442               	retlw	66	;'B'
   405  00B5  3475               	retlw	117	;'u'
   406  00B6  3474               	retlw	116	;'t'
   407  00B7  3474               	retlw	116	;'t'
   408  00B8  346F               	retlw	111	;'o'
   409  00B9  346E               	retlw	110	;'n'
   410  00BA  3420               	retlw	32	;' '
   411  00BB  3432               	retlw	50	;'2'
   412  00BC  3420               	retlw	32	;' '
   413  00BD  3469               	retlw	105	;'i'
   414  00BE  3473               	retlw	115	;'s'
   415  00BF  3420               	retlw	32	;' '
   416  00C0  346F               	retlw	111	;'o'
   417  00C1  3470               	retlw	112	;'p'
   418  00C2  3465               	retlw	101	;'e'
   419  00C3  346E               	retlw	110	;'n'
   420  00C4  3400               	retlw	0
   421  00C5                     STR_15:	
   422  00C5  3442               	retlw	66	;'B'
   423  00C6  3475               	retlw	117	;'u'
   424  00C7  3474               	retlw	116	;'t'
   425  00C8  3474               	retlw	116	;'t'
   426  00C9  346F               	retlw	111	;'o'
   427  00CA  346E               	retlw	110	;'n'
   428  00CB  3420               	retlw	32	;' '
   429  00CC  3433               	retlw	51	;'3'
   430  00CD  3420               	retlw	32	;' '
   431  00CE  3469               	retlw	105	;'i'
   432  00CF  3473               	retlw	115	;'s'
   433  00D0  3420               	retlw	32	;' '
   434  00D1  346F               	retlw	111	;'o'
   435  00D2  3470               	retlw	112	;'p'
   436  00D3  3465               	retlw	101	;'e'
   437  00D4  346E               	retlw	110	;'n'
   438  00D5  3400               	retlw	0
   439  00D6                     STR_18:	
   440  00D6  3442               	retlw	66	;'B'
   441  00D7  3475               	retlw	117	;'u'
   442  00D8  3474               	retlw	116	;'t'
   443  00D9  3474               	retlw	116	;'t'
   444  00DA  346F               	retlw	111	;'o'
   445  00DB  346E               	retlw	110	;'n'
   446  00DC  3420               	retlw	32	;' '
   447  00DD  3434               	retlw	52	;'4'
   448  00DE  3420               	retlw	32	;' '
   449  00DF  3469               	retlw	105	;'i'
   450  00E0  3473               	retlw	115	;'s'
   451  00E1  3420               	retlw	32	;' '
   452  00E2  346F               	retlw	111	;'o'
   453  00E3  3470               	retlw	112	;'p'
   454  00E4  3465               	retlw	101	;'e'
   455  00E5  346E               	retlw	110	;'n'
   456  00E6  3400               	retlw	0
   457  00E7                     STR_3:	
   458  00E7  3444               	retlw	68	;'D'
   459  00E8  3444               	retlw	68	;'D'
   460  00E9  342F               	retlw	47	;'/'
   461  00EA  344D               	retlw	77	;'M'
   462  00EB  344D               	retlw	77	;'M'
   463  00EC  342F               	retlw	47	;'/'
   464  00ED  3459               	retlw	89	;'Y'
   465  00EE  3459               	retlw	89	;'Y'
   466  00EF  3400               	retlw	0
   467  00F0                     STR_2:	
   468  00F0  340A               	retlw	10
   469  00F1  340D               	retlw	13
   470  00F2  340A               	retlw	10
   471  00F3  3400               	retlw	0
   472  00F4                     STR_7:	
   473  00F4  3425               	retlw	37	;'%'
   474  00F5  3478               	retlw	120	;'x'
   475  00F6  3400               	retlw	0
   476  00F7                     __end_of__stringdata:	
   477                           
   478                           	psect	cinit
   479  07E3                     start_initialization:	
   480                           ; #config settings
   481                           
   482  07E3                     __initialization:	
   483                           
   484                           ; Clear objects allocated to BANK0
   485  07E3  1383               	bcf	3,7	;select IRP bank0
   486  07E4  3020               	movlw	low __pbssBANK0
   487  07E5  0084               	movwf	4
   488  07E6  3053               	movlw	low (__pbssBANK0+51)
   489  07E7  120A  118A  20F7  120A  118A  	fcall	clear_ram0
   490                           
   491                           ; Initialize objects allocated to BANK0
   492  07EC  120A  158A  26A4  120A  118A  	fcall	__pidataBANK0	;fetch initializer
   493  07F1  00E9               	movwf	__pdataBANK0& (0+127)
   494  07F2  120A  158A  26A5  120A  118A  	fcall	__pidataBANK0+1	;fetch initializer
   495  07F7  00EA               	movwf	(__pdataBANK0+1)& (0+127)
   496  07F8  120A  158A  26A6   	fcall	__pidataBANK0+2	;fetch initializer
   497  07FB  00EB               	movwf	(__pdataBANK0+2)& (0+127)
   498  07FC                     end_of_initialization:	
   499                           ;End of C runtime variable initialization code
   500                           
   501  07FC                     __end_of__initialization:	
   502  07FC  0183               	clrf	3
   503  07FD  120A  118A  2D75   	ljmp	_main	;jump to C main() function
   504                           
   505                           	psect	bssBANK0
   506  0020                     __pbssBANK0:	
   507  0020                     _DATA:	
   508  0020                     	ds	8
   509  0028                     _val:	
   510  0028                     	ds	3
   511  002B                     _Diff:	
   512  002B                     	ds	2
   513  002D                     _H:	
   514  002D                     	ds	2
   515  002F                     _H_1:	
   516  002F                     	ds	2
   517  0031                     _M:	
   518  0031                     	ds	2
   519  0033                     _M_1:	
   520  0033                     	ds	2
   521  0035                     _S:	
   522  0035                     	ds	2
   523  0037                     _S_1:	
   524  0037                     	ds	2
   525  0039                     _adc_value:	
   526  0039                     	ds	2
   527  003B                     _ADC1:	
   528  003B                     	ds	1
   529  003C                     _ADH:	
   530  003C                     	ds	1
   531  003D                     _ADL:	
   532  003D                     	ds	1
   533  003E                     _Button_1:	
   534  003E                     	ds	1
   535  003F                     _Button_2:	
   536  003F                     	ds	1
   537  0040                     _Button_3:	
   538  0040                     	ds	1
   539  0041                     _Button_4:	
   540  0041                     	ds	1
   541  0042                     _date:	
   542  0042                     	ds	1
   543  0043                     _enter:	
   544  0043                     	ds	1
   545  0044                     _h:	
   546  0044                     	ds	1
   547  0045                     _h1:	
   548  0045                     	ds	1
   549  0046                     _hour:	
   550  0046                     	ds	1
   551  0047                     _hour_1:	
   552  0047                     	ds	1
   553  0048                     _m:	
   554  0048                     	ds	1
   555  0049                     _m1:	
   556  0049                     	ds	1
   557  004A                     _min:	
   558  004A                     	ds	1
   559  004B                     _min_1:	
   560  004B                     	ds	1
   561  004C                     _month:	
   562  004C                     	ds	1
   563  004D                     _pot:	
   564  004D                     	ds	1
   565  004E                     _s:	
   566  004E                     	ds	1
   567  004F                     _s1:	
   568  004F                     	ds	1
   569  0050                     _sec:	
   570  0050                     	ds	1
   571  0051                     _sec_1:	
   572  0051                     	ds	1
   573  0052                     _year:	
   574  0052                     	ds	1
   575                           
   576                           	psect	dataBANK0
   577  0069                     __pdataBANK0:	
   578  0069                     _ref:	
   579  0069                     	ds	3
   580                           
   581                           	psect	clrtext
   582  00F7                     clear_ram0:	
   583                           ;	Called with FSR containing the base address, and
   584                           ;	W with the last address+1
   585                           
   586  00F7  0064               	clrwdt	;clear the watchdog before getting into this loop
   587  00F8                     clrloop0:	
   588  00F8  0180               	clrf	0	;clear RAM location pointed to by FSR
   589  00F9  0A84               	incf	4,f	;increment pointer
   590  00FA  0604               	xorwf	4,w	;XOR with final address
   591  00FB  1903               	btfsc	3,2	;have we reached the end yet?
   592  00FC  3400               	retlw	0	;all done for this memory range, return
   593  00FD  0604               	xorwf	4,w	;XOR again to restore value
   594  00FE  28F8               	goto	clrloop0	;do the next byte
   595                           
   596                           	psect	cstackCOMMON
   597  0070                     __pcstackCOMMON:	
   598  0070                     ?_adc_init:	
   599  0070                     ??_adc_init:	
   600                           ; 0 bytes @ 0x0
   601                           
   602  0070                     ?_serial_init:	
   603                           ; 0 bytes @ 0x0
   604                           
   605  0070                     ??_serial_init:	
   606                           ; 0 bytes @ 0x0
   607                           
   608  0070                     ?_i2c_init:	
   609                           ; 0 bytes @ 0x0
   610                           
   611  0070                     ??_i2c_init:	
   612                           ; 0 bytes @ 0x0
   613                           
   614  0070                     ?_i2c_start:	
   615                           ; 0 bytes @ 0x0
   616                           
   617  0070                     ??_i2c_start:	
   618                           ; 0 bytes @ 0x0
   619                           
   620  0070                     ?_i2c_send:	
   621                           ; 0 bytes @ 0x0
   622                           
   623  0070                     ??_i2c_send:	
   624                           ; 0 bytes @ 0x0
   625                           
   626  0070                     ?_i2c_stop:	
   627                           ; 0 bytes @ 0x0
   628                           
   629  0070                     ??_i2c_stop:	
   630                           ; 0 bytes @ 0x0
   631                           
   632  0070                     ?_store_data:	
   633                           ; 0 bytes @ 0x0
   634                           
   635  0070                     ?_i2c_restart:	
   636                           ; 0 bytes @ 0x0
   637                           
   638  0070                     ??_i2c_restart:	
   639                           ; 0 bytes @ 0x0
   640                           
   641  0070                     ??_i2c_read:	
   642                           ; 0 bytes @ 0x0
   643                           
   644  0070                     ?_i2c_nak:	
   645                           ; 0 bytes @ 0x0
   646                           
   647  0070                     ??_i2c_nak:	
   648                           ; 0 bytes @ 0x0
   649                           
   650  0070                     ?_main:	
   651                           ; 0 bytes @ 0x0
   652                           
   653  0070                     ?_putch:	
   654                           ; 0 bytes @ 0x0
   655                           
   656  0070                     ??_putch:	
   657                           ; 0 bytes @ 0x0
   658                           
   659  0070                     ?_rtc1307_read:	
   660                           ; 0 bytes @ 0x0
   661                           
   662  0070                     ?_BCD2Dec:	
   663                           ; 1 bytes @ 0x0
   664                           
   665  0070                     ?_Asci2BCD:	
   666                           ; 1 bytes @ 0x0
   667                           
   668  0070                     ?_i2c_read:	
   669                           ; 1 bytes @ 0x0
   670                           
   671  0070                     ?___bmul:	
   672                           ; 1 bytes @ 0x0
   673                           
   674  0070                     ?___wmul:	
   675                           ; 1 bytes @ 0x0
   676                           
   677  0070                     ?___lwdiv:	
   678                           ; 2 bytes @ 0x0
   679                           
   680  0070                     ?___ftpack:	
   681                           ; 2 bytes @ 0x0
   682                           
   683  0070                     ?___fttol:	
   684                           ; 3 bytes @ 0x0
   685                           
   686  0070                     putch@byte:	
   687                           ; 4 bytes @ 0x0
   688                           
   689  0070                     Asci2BCD@lower:	
   690                           ; 1 bytes @ 0x0
   691                           
   692  0070                     i2c_send@dat:	
   693                           ; 1 bytes @ 0x0
   694                           
   695  0070                     ___bmul@multiplicand:	
   696                           ; 1 bytes @ 0x0
   697                           
   698  0070                     ___wmul@multiplier:	
   699                           ; 1 bytes @ 0x0
   700                           
   701  0070                     ___lwdiv@divisor:	
   702                           ; 2 bytes @ 0x0
   703                           
   704  0070                     ___ftpack@arg:	
   705                           ; 2 bytes @ 0x0
   706                           
   707  0070                     ___fttol@f1:	
   708                           ; 3 bytes @ 0x0
   709                           
   710                           
   711                           ; 3 bytes @ 0x0
   712  0070                     	ds	1
   713  0071                     ??_rtc1307_read:	
   714  0071                     ??_Asci2BCD:	
   715                           ; 0 bytes @ 0x1
   716                           
   717  0071                     ??___bmul:	
   718                           ; 0 bytes @ 0x1
   719                           
   720                           
   721                           ; 0 bytes @ 0x1
   722  0071                     	ds	1
   723  0072                     rtc1307_read@address:	
   724  0072                     ___bmul@product:	
   725                           ; 1 bytes @ 0x2
   726                           
   727  0072                     ___wmul@multiplicand:	
   728                           ; 1 bytes @ 0x2
   729                           
   730  0072                     ___lwdiv@dividend:	
   731                           ; 2 bytes @ 0x2
   732                           
   733                           
   734                           ; 2 bytes @ 0x2
   735  0072                     	ds	1
   736  0073                     Asci2BCD@upper:	
   737  0073                     rtc1307_read@temp:	
   738                           ; 1 bytes @ 0x3
   739                           
   740  0073                     ___bmul@multiplier:	
   741                           ; 1 bytes @ 0x3
   742                           
   743  0073                     ___ftpack@exp:	
   744                           ; 1 bytes @ 0x3
   745                           
   746                           
   747                           ; 1 bytes @ 0x3
   748  0073                     	ds	1
   749  0074                     ??_BCD2Dec:	
   750  0074                     ??___wmul:	
   751                           ; 0 bytes @ 0x4
   752                           
   753  0074                     ??___fttol:	
   754                           ; 0 bytes @ 0x4
   755                           
   756  0074                     ??___lwdiv:	
   757                           ; 0 bytes @ 0x4
   758                           
   759  0074                     Asci2BCD@L:	
   760                           ; 0 bytes @ 0x4
   761                           
   762  0074                     ___ftpack@sign:	
   763                           ; 1 bytes @ 0x4
   764                           
   765  0074                     ___wmul@product:	
   766                           ; 1 bytes @ 0x4
   767                           
   768                           
   769                           ; 2 bytes @ 0x4
   770  0074                     	ds	1
   771  0075                     ??___ftpack:	
   772  0075                     Asci2BCD@chr:	
   773                           ; 0 bytes @ 0x5
   774                           
   775  0075                     ___lwdiv@quotient:	
   776                           ; 1 bytes @ 0x5
   777                           
   778                           
   779                           ; 2 bytes @ 0x5
   780  0075                     	ds	1
   781  0076                     Asci2BCD@U:	
   782  0076                     BCD2Dec@unit:	
   783                           ; 1 bytes @ 0x6
   784                           
   785                           
   786                           ; 1 bytes @ 0x6
   787  0076                     	ds	1
   788  0077                     BCD2Dec@temp:	
   789  0077                     ___lwdiv@counter:	
   790                           ; 1 bytes @ 0x7
   791                           
   792                           
   793                           ; 1 bytes @ 0x7
   794  0077                     	ds	1
   795  0078                     ?_printf:	
   796  0078                     ?___ftdiv:	
   797                           ; 2 bytes @ 0x8
   798                           
   799  0078                     ?___lwtoft:	
   800                           ; 3 bytes @ 0x8
   801                           
   802  0078                     BCD2Dec@bcd:	
   803                           ; 3 bytes @ 0x8
   804                           
   805  0078                     ___fttol@sign1:	
   806                           ; 1 bytes @ 0x8
   807                           
   808  0078                     ___lwtoft@c:	
   809                           ; 1 bytes @ 0x8
   810                           
   811  0078                     ___ftdiv@f2:	
   812                           ; 2 bytes @ 0x8
   813                           
   814                           
   815                           ; 3 bytes @ 0x8
   816  0078                     	ds	1
   817  0079                     BCD2Dec@ten:	
   818  0079                     ___fttol@lval:	
   819                           ; 1 bytes @ 0x9
   820                           
   821                           
   822                           ; 4 bytes @ 0x9
   823  0079                     	ds	1
   824  007A                     ??_printf:	
   825                           
   826                           ; 0 bytes @ 0xA
   827  007A                     	ds	1
   828  007B                     ??___lwtoft:	
   829  007B                     ___ftdiv@f1:	
   830                           ; 0 bytes @ 0xB
   831                           
   832                           
   833                           ; 3 bytes @ 0xB
   834  007B                     	ds	2
   835  007D                     ___fttol@exp1:	
   836                           
   837                           ; 1 bytes @ 0xD
   838  007D                     	ds	1
   839                           
   840                           	psect	cstackBANK0
   841  0053                     __pcstackBANK0:	
   842  0053                     ??___ftdiv:	
   843  0053                     ?___ftmul:	
   844                           ; 0 bytes @ 0x0
   845                           
   846  0053                     printf@flag:	
   847                           ; 3 bytes @ 0x0
   848                           
   849  0053                     ___ftmul@f1:	
   850                           ; 1 bytes @ 0x0
   851                           
   852                           
   853                           ; 3 bytes @ 0x0
   854  0053                     	ds	1
   855  0054                     printf@idx:	
   856                           
   857                           ; 1 bytes @ 0x1
   858  0054                     	ds	1
   859  0055                     printf@ap:	
   860                           
   861                           ; 1 bytes @ 0x2
   862  0055                     	ds	1
   863  0056                     ___ftmul@f2:	
   864  0056                     printf@_val:	
   865                           ; 3 bytes @ 0x3
   866                           
   867                           
   868                           ; 4 bytes @ 0x3
   869  0056                     	ds	1
   870  0057                     ___ftdiv@cntr:	
   871                           
   872                           ; 1 bytes @ 0x4
   873  0057                     	ds	1
   874  0058                     ___ftdiv@f3:	
   875                           
   876                           ; 3 bytes @ 0x5
   877  0058                     	ds	1
   878  0059                     ??___ftmul:	
   879                           
   880                           ; 0 bytes @ 0x6
   881  0059                     	ds	1
   882  005A                     printf@prec:	
   883                           
   884                           ; 1 bytes @ 0x7
   885  005A                     	ds	1
   886  005B                     printf@c:	
   887  005B                     ___ftdiv@exp:	
   888                           ; 1 bytes @ 0x8
   889                           
   890                           
   891                           ; 1 bytes @ 0x8
   892  005B                     	ds	1
   893  005C                     printf@f:	
   894  005C                     ___ftdiv@sign:	
   895                           ; 1 bytes @ 0x9
   896                           
   897                           
   898                           ; 1 bytes @ 0x9
   899  005C                     	ds	1
   900  005D                     ___ftmul@exp:	
   901                           
   902                           ; 1 bytes @ 0xA
   903  005D                     	ds	1
   904  005E                     ___ftmul@f3_as_product:	
   905                           
   906                           ; 3 bytes @ 0xB
   907  005E                     	ds	3
   908  0061                     ___ftmul@cntr:	
   909                           
   910                           ; 1 bytes @ 0xE
   911  0061                     	ds	1
   912  0062                     ___ftmul@sign:	
   913                           
   914                           ; 1 bytes @ 0xF
   915  0062                     	ds	1
   916  0063                     ??_store_data:	
   917                           
   918                           ; 0 bytes @ 0x10
   919  0063                     	ds	2
   920  0065                     ??_main:	
   921                           
   922                           ; 0 bytes @ 0x12
   923  0065                     	ds	3
   924  0068                     main@i:	
   925                           
   926                           ; 1 bytes @ 0x15
   927  0068                     	ds	1
   928                           
   929                           	psect	maintext
   930  0575                     __pmaintext:	
   931 ;;
   932 ;;Main: autosize = 0, tempsize = 3, incstack = 0, save=0
   933 ;;
   934 ;; *************** function _main *****************
   935 ;; Defined at:
   936 ;;		line 33 in file "D:\WALEED\live_person\mutaz\Project\main.c"
   937 ;; Parameters:    Size  Location     Type
   938 ;;		None
   939 ;; Auto vars:     Size  Location     Type
   940 ;;  i               1   21[BANK0 ] unsigned char 
   941 ;; Return value:  Size  Location     Type
   942 ;;		None               void
   943 ;; Registers used:
   944 ;;		wreg, fsr0l, fsr0h, status,2, status,0, btemp+1, pclath, cstack
   945 ;; Tracked objects:
   946 ;;		On entry : 17F/0
   947 ;;		On exit  : 0/0
   948 ;;		Unchanged: 0/0
   949 ;; Data sizes:     COMMON   BANK0   BANK1   BANK3   BANK2
   950 ;;      Params:         0       0       0       0       0
   951 ;;      Locals:         0       1       0       0       0
   952 ;;      Temps:          0       3       0       0       0
   953 ;;      Totals:         0       4       0       0       0
   954 ;;Total ram usage:        4 bytes
   955 ;; Hardware stack levels required when called:    3
   956 ;; This function calls:
   957 ;;		_Asci2BCD
   958 ;;		_BCD2Dec
   959 ;;		___wmul
   960 ;;		_adc_init
   961 ;;		_i2c_init
   962 ;;		_i2c_send
   963 ;;		_i2c_start
   964 ;;		_i2c_stop
   965 ;;		_printf
   966 ;;		_rtc1307_read
   967 ;;		_serial_init
   968 ;;		_store_data
   969 ;; This function is called by:
   970 ;;		Startup code after reset
   971 ;; This function uses a non-reentrant model
   972 ;;
   973                           
   974                           
   975                           ;psect for function _main
   976  0575                     _main:	
   977                           
   978                           ;main.c: 35: TRISD = 0x03;
   979                           
   980                           ;incstack = 0
   981                           ; Regs used in _main: [wreg-fsr0h+status,2+status,0+btemp+1+pclath+cstack]
   982  0575  3003               	movlw	3
   983  0576  1683               	bsf	3,5	;RP0=1, select bank1
   984  0577  1303               	bcf	3,6	;RP1=0, select bank1
   985  0578  0088               	movwf	8	;volatile
   986                           
   987                           ;main.c: 36: PORTD = 0x00;
   988  0579  1283               	bcf	3,5	;RP0=0, select bank0
   989  057A  1303               	bcf	3,6	;RP1=0, select bank0
   990  057B  0188               	clrf	8	;volatile
   991                           
   992                           ;main.c: 37: adc_init();
   993  057C  120A  158A  26EC  120A  118A  	fcall	_adc_init
   994                           
   995                           ;main.c: 38: serial_init();
   996  0581  120A  158A  2718  120A  118A  	fcall	_serial_init
   997                           
   998                           ;main.c: 39: i2c_init();
   999  0586  120A  158A  26F9  120A  118A  	fcall	_i2c_init
  1000                           
  1001                           ;main.c: 40: _delay((unsigned long)((100)*(20000000/4000.0)));
  1002  058B  3003               	movlw	3
  1003  058C  1283               	bcf	3,5	;RP0=0, select bank0
  1004  058D  1303               	bcf	3,6	;RP1=0, select bank0
  1005  058E  00E7               	movwf	??_main+2
  1006  058F  308A               	movlw	138
  1007  0590  00E6               	movwf	??_main+1
  1008  0591  3056               	movlw	86
  1009  0592  00E5               	movwf	??_main
  1010  0593                     u1697:	
  1011  0593  0BE5               	decfsz	??_main,f
  1012  0594  2D93               	goto	u1697
  1013  0595  0BE6               	decfsz	??_main+1,f
  1014  0596  2D93               	goto	u1697
  1015  0597  0BE7               	decfsz	??_main+2,f
  1016  0598  2D93               	goto	u1697
  1017  0599  2D9A               	nop2
  1018                           
  1019                           ;main.c: 46: i2c_start();
  1020  059A  120A  158A  26C2  120A  118A  	fcall	_i2c_start
  1021                           
  1022                           ;main.c: 47: i2c_send(0xD0);
  1023  059F  30D0               	movlw	208
  1024  05A0  120A  158A  26AF  120A  118A  	fcall	_i2c_send
  1025                           
  1026                           ;main.c: 48: i2c_send(0x00);
  1027  05A5  3000               	movlw	0
  1028  05A6  120A  158A  26AF  120A  118A  	fcall	_i2c_send
  1029                           
  1030                           ;main.c: 49: i2c_send(0x80);
  1031  05AB  3080               	movlw	128
  1032  05AC  120A  158A  26AF  120A  118A  	fcall	_i2c_send
  1033                           
  1034                           ;main.c: 50: i2c_send(0x00);
  1035  05B1  3000               	movlw	0
  1036  05B2  120A  158A  26AF  120A  118A  	fcall	_i2c_send
  1037                           
  1038                           ;main.c: 51: i2c_send(0x00);
  1039  05B7  3000               	movlw	0
  1040  05B8  120A  158A  26AF  120A  118A  	fcall	_i2c_send
  1041                           
  1042                           ;main.c: 52: i2c_send(0x00);
  1043  05BD  3000               	movlw	0
  1044  05BE  120A  158A  26AF  120A  118A  	fcall	_i2c_send
  1045                           
  1046                           ;main.c: 53: i2c_send(0x00);
  1047  05C3  3000               	movlw	0
  1048  05C4  120A  158A  26AF  120A  118A  	fcall	_i2c_send
  1049                           
  1050                           ;main.c: 54: i2c_send(0x00);
  1051  05C9  3000               	movlw	0
  1052  05CA  120A  158A  26AF  120A  118A  	fcall	_i2c_send
  1053                           
  1054                           ;main.c: 55: i2c_send(0x00);
  1055  05CF  3000               	movlw	0
  1056  05D0  120A  158A  26AF  120A  118A  	fcall	_i2c_send
  1057                           
  1058                           ;main.c: 56: i2c_stop();
  1059  05D5  120A  158A  26CC  120A  118A  	fcall	_i2c_stop
  1060                           
  1061                           ;main.c: 58: _delay((unsigned long)((500)*(20000000/4000.0)));
  1062  05DA  300D               	movlw	13
  1063  05DB  1283               	bcf	3,5	;RP0=0, select bank0
  1064  05DC  1303               	bcf	3,6	;RP1=0, select bank0
  1065  05DD  00E7               	movwf	??_main+2
  1066  05DE  30AF               	movlw	175
  1067  05DF  00E6               	movwf	??_main+1
  1068  05E0  30C1               	movlw	193
  1069  05E1  00E5               	movwf	??_main
  1070  05E2                     u1707:	
  1071  05E2  0BE5               	decfsz	??_main,f
  1072  05E3  2DE2               	goto	u1707
  1073  05E4  0BE6               	decfsz	??_main+1,f
  1074  05E5  2DE2               	goto	u1707
  1075  05E6  0BE7               	decfsz	??_main+2,f
  1076  05E7  2DE2               	goto	u1707
  1077  05E8  0000               	nop
  1078                           
  1079                           ;main.c: 61: i2c_start();
  1080  05E9  120A  158A  26C2  120A  118A  	fcall	_i2c_start
  1081                           
  1082                           ;main.c: 62: i2c_send(0xD0);
  1083  05EE  30D0               	movlw	208
  1084  05EF  120A  158A  26AF  120A  118A  	fcall	_i2c_send
  1085                           
  1086                           ;main.c: 63: i2c_send(0x00);
  1087  05F4  3000               	movlw	0
  1088  05F5  120A  158A  26AF  120A  118A  	fcall	_i2c_send
  1089                           
  1090                           ;main.c: 64: i2c_send(0x00);
  1091  05FA  3000               	movlw	0
  1092  05FB  120A  158A  26AF  120A  118A  	fcall	_i2c_send
  1093                           
  1094                           ;main.c: 65: i2c_stop();
  1095  0600  120A  158A  26CC  120A  118A  	fcall	_i2c_stop
  1096                           
  1097                           ;main.c: 67: store_data();
  1098  0605  120A  118A  243F  120A  118A  	fcall	_store_data
  1099  060A                     l2311:	
  1100                           ;main.c: 69: while(1)
  1101                           
  1102                           
  1103                           ;main.c: 70: {
  1104                           ;main.c: 71: _delay((unsigned long)((500)*(20000000/4000.0)));
  1105  060A  300D               	movlw	13
  1106  060B  1283               	bcf	3,5	;RP0=0, select bank0
  1107  060C  1303               	bcf	3,6	;RP1=0, select bank0
  1108  060D  00E7               	movwf	??_main+2
  1109  060E  30AF               	movlw	175
  1110  060F  00E6               	movwf	??_main+1
  1111  0610  30C1               	movlw	193
  1112  0611  00E5               	movwf	??_main
  1113  0612                     u1717:	
  1114  0612  0BE5               	decfsz	??_main,f
  1115  0613  2E12               	goto	u1717
  1116  0614  0BE6               	decfsz	??_main+1,f
  1117  0615  2E12               	goto	u1717
  1118  0616  0BE7               	decfsz	??_main+2,f
  1119  0617  2E12               	goto	u1717
  1120  0618  0000               	nop
  1121                           
  1122                           ;main.c: 73: sec = rtc1307_read(0x00);
  1123  0619  3000               	movlw	0
  1124  061A  120A  158A  2793  120A  118A  	fcall	_rtc1307_read
  1125  061F  1283               	bcf	3,5	;RP0=0, select bank0
  1126  0620  1303               	bcf	3,6	;RP1=0, select bank0
  1127  0621  00E5               	movwf	??_main
  1128  0622  0865               	movf	??_main,w
  1129  0623  00D0               	movwf	_sec
  1130                           
  1131                           ;main.c: 74: min = rtc1307_read(0x01);
  1132  0624  3001               	movlw	1
  1133  0625  120A  158A  2793  120A  118A  	fcall	_rtc1307_read
  1134  062A  1283               	bcf	3,5	;RP0=0, select bank0
  1135  062B  1303               	bcf	3,6	;RP1=0, select bank0
  1136  062C  00E5               	movwf	??_main
  1137  062D  0865               	movf	??_main,w
  1138  062E  00CA               	movwf	_min
  1139                           
  1140                           ;main.c: 75: hour = rtc1307_read(0x02);
  1141  062F  3002               	movlw	2
  1142  0630  120A  158A  2793  120A  118A  	fcall	_rtc1307_read
  1143  0635  1283               	bcf	3,5	;RP0=0, select bank0
  1144  0636  1303               	bcf	3,6	;RP1=0, select bank0
  1145  0637  00E5               	movwf	??_main
  1146  0638  0865               	movf	??_main,w
  1147  0639  00C6               	movwf	_hour
  1148                           
  1149                           ;main.c: 76: date = rtc1307_read(0x04);
  1150  063A  3004               	movlw	4
  1151  063B  120A  158A  2793  120A  118A  	fcall	_rtc1307_read
  1152  0640  1283               	bcf	3,5	;RP0=0, select bank0
  1153  0641  1303               	bcf	3,6	;RP1=0, select bank0
  1154  0642  00E5               	movwf	??_main
  1155  0643  0865               	movf	??_main,w
  1156  0644  00C2               	movwf	_date
  1157                           
  1158                           ;main.c: 77: month = rtc1307_read(0x05);
  1159  0645  3005               	movlw	5
  1160  0646  120A  158A  2793  120A  118A  	fcall	_rtc1307_read
  1161  064B  1283               	bcf	3,5	;RP0=0, select bank0
  1162  064C  1303               	bcf	3,6	;RP1=0, select bank0
  1163  064D  00E5               	movwf	??_main
  1164  064E  0865               	movf	??_main,w
  1165  064F  00CC               	movwf	_month
  1166                           
  1167                           ;main.c: 78: year = rtc1307_read(0x06);
  1168  0650  3006               	movlw	6
  1169  0651  120A  158A  2793  120A  118A  	fcall	_rtc1307_read
  1170  0656  1283               	bcf	3,5	;RP0=0, select bank0
  1171  0657  1303               	bcf	3,6	;RP1=0, select bank0
  1172  0658  00E5               	movwf	??_main
  1173  0659  0865               	movf	??_main,w
  1174  065A  00D2               	movwf	_year
  1175                           
  1176                           ;main.c: 80: s = BCD2Dec(sec);
  1177  065B  0850               	movf	_sec,w
  1178  065C  120A  158A  276E  120A  118A  	fcall	_BCD2Dec
  1179  0661  1283               	bcf	3,5	;RP0=0, select bank0
  1180  0662  1303               	bcf	3,6	;RP1=0, select bank0
  1181  0663  00E5               	movwf	??_main
  1182  0664  0865               	movf	??_main,w
  1183  0665  00CE               	movwf	_s
  1184                           
  1185                           ;main.c: 81: m = BCD2Dec(min);
  1186  0666  084A               	movf	_min,w
  1187  0667  120A  158A  276E  120A  118A  	fcall	_BCD2Dec
  1188  066C  1283               	bcf	3,5	;RP0=0, select bank0
  1189  066D  1303               	bcf	3,6	;RP1=0, select bank0
  1190  066E  00E5               	movwf	??_main
  1191  066F  0865               	movf	??_main,w
  1192  0670  00C8               	movwf	_m
  1193                           
  1194                           ;main.c: 82: h = BCD2Dec(hour);
  1195  0671  0846               	movf	_hour,w
  1196  0672  120A  158A  276E  120A  118A  	fcall	_BCD2Dec
  1197  0677  1283               	bcf	3,5	;RP0=0, select bank0
  1198  0678  1303               	bcf	3,6	;RP1=0, select bank0
  1199  0679  00E5               	movwf	??_main
  1200  067A  0865               	movf	??_main,w
  1201  067B  00C4               	movwf	_h
  1202                           
  1203                           ;main.c: 85: H = h * 3600;
  1204  067C  0844               	movf	_h,w
  1205  067D  00E5               	movwf	??_main
  1206  067E  01E6               	clrf	??_main+1
  1207  067F  0865               	movf	??_main,w
  1208  0680  00F0               	movwf	___wmul@multiplier
  1209  0681  0866               	movf	??_main+1,w
  1210  0682  00F1               	movwf	___wmul@multiplier+1
  1211  0683  3010               	movlw	16
  1212  0684  00F2               	movwf	___wmul@multiplicand
  1213  0685  300E               	movlw	14
  1214  0686  00F3               	movwf	___wmul@multiplicand+1
  1215  0687  120A  158A  274B  120A  118A  	fcall	___wmul
  1216  068C  0871               	movf	?___wmul+1,w
  1217  068D  1283               	bcf	3,5	;RP0=0, select bank0
  1218  068E  1303               	bcf	3,6	;RP1=0, select bank0
  1219  068F  01AE               	clrf	_H+1
  1220  0690  07AE               	addwf	_H+1,f
  1221  0691  0870               	movf	?___wmul,w
  1222  0692  01AD               	clrf	_H
  1223  0693  07AD               	addwf	_H,f
  1224                           
  1225                           ;main.c: 86: M = m * 60;
  1226  0694  0848               	movf	_m,w
  1227  0695  00E5               	movwf	??_main
  1228  0696  01E6               	clrf	??_main+1
  1229  0697  0865               	movf	??_main,w
  1230  0698  00F0               	movwf	___wmul@multiplier
  1231  0699  0866               	movf	??_main+1,w
  1232  069A  00F1               	movwf	___wmul@multiplier+1
  1233  069B  303C               	movlw	60
  1234  069C  00F2               	movwf	___wmul@multiplicand
  1235  069D  3000               	movlw	0
  1236  069E  00F3               	movwf	___wmul@multiplicand+1
  1237  069F  120A  158A  274B  120A  118A  	fcall	___wmul
  1238  06A4  0871               	movf	?___wmul+1,w
  1239  06A5  1283               	bcf	3,5	;RP0=0, select bank0
  1240  06A6  1303               	bcf	3,6	;RP1=0, select bank0
  1241  06A7  01B2               	clrf	_M+1
  1242  06A8  07B2               	addwf	_M+1,f
  1243  06A9  0870               	movf	?___wmul,w
  1244  06AA  01B1               	clrf	_M
  1245  06AB  07B1               	addwf	_M,f
  1246                           
  1247                           ;main.c: 87: S = H + M + s;
  1248  06AC  084E               	movf	_s,w
  1249  06AD  072D               	addwf	_H,w
  1250  06AE  00E5               	movwf	??_main
  1251  06AF  082E               	movf	_H+1,w
  1252  06B0  1803               	skipnc
  1253  06B1  0A2E               	incf	_H+1,w
  1254  06B2  00E6               	movwf	??_main+1
  1255  06B3  0831               	movf	_M,w
  1256  06B4  0765               	addwf	??_main,w
  1257  06B5  00B5               	movwf	_S
  1258  06B6  0832               	movf	_M+1,w
  1259  06B7  1803               	skipnc
  1260  06B8  0A32               	incf	_M+1,w
  1261  06B9  0766               	addwf	??_main+1,w
  1262  06BA  00B6               	movwf	_S+1
  1263                           
  1264                           ;main.c: 88: Diff = S - S_1;
  1265  06BB  0937               	comf	_S_1,w
  1266  06BC  00E5               	movwf	??_main
  1267  06BD  0938               	comf	_S_1+1,w
  1268  06BE  00E6               	movwf	??_main+1
  1269  06BF  0AE5               	incf	??_main,f
  1270  06C0  1903               	skipnz
  1271  06C1  0AE6               	incf	??_main+1,f
  1272  06C2  0835               	movf	_S,w
  1273  06C3  0765               	addwf	??_main,w
  1274  06C4  00AB               	movwf	_Diff
  1275  06C5  0836               	movf	_S+1,w
  1276  06C6  1803               	skipnc
  1277  06C7  0A36               	incf	_S+1,w
  1278  06C8  0766               	addwf	??_main+1,w
  1279  06C9  00AC               	movwf	_Diff+1
  1280                           
  1281                           ;main.c: 90: if(Diff>=10)
  1282  06CA  3000               	movlw	0
  1283  06CB  022C               	subwf	_Diff+1,w
  1284  06CC  300A               	movlw	10
  1285  06CD  1903               	skipnz
  1286  06CE  022B               	subwf	_Diff,w
  1287  06CF  1C03               	skipc
  1288  06D0  2ED8               	goto	l2345
  1289                           
  1290                           ;main.c: 91: {
  1291                           ;main.c: 92: Diff = 0;
  1292  06D1  01AB               	clrf	_Diff
  1293  06D2  01AC               	clrf	_Diff+1
  1294                           
  1295                           ;main.c: 93: store_data();
  1296  06D3  120A  118A  243F  120A  118A  	fcall	_store_data
  1297  06D8                     l2345:	
  1298                           
  1299                           ;main.c: 94: }
  1300                           ;main.c: 98: if (RD0==1)
  1301  06D8  1283               	bcf	3,5	;RP0=0, select bank0
  1302  06D9  1303               	bcf	3,6	;RP1=0, select bank0
  1303  06DA  1C08               	btfss	8,0	;volatile
  1304  06DB  2F77               	goto	l2383
  1305                           
  1306                           ;main.c: 99: {
  1307                           ;main.c: 101: printf("Enter Date in the formate");
  1308  06DC  3028               	movlw	(STR_1-__stringbase)& (0+255)
  1309  06DD  120A  118A  2207  120A  118A  	fcall	_printf
  1310                           
  1311                           ;main.c: 102: printf("\n\r\n");
  1312  06E2  30E8               	movlw	(STR_2-__stringbase)& (0+255)
  1313  06E3  120A  118A  2207  120A  118A  	fcall	_printf
  1314                           
  1315                           ;main.c: 103: printf("DD/MM/YY");
  1316  06E8  30DF               	movlw	(STR_3-__stringbase)& (0+255)
  1317  06E9  120A  118A  2207  120A  118A  	fcall	_printf
  1318                           
  1319                           ;main.c: 104: printf("\n\r\n");
  1320  06EE  30E8               	movlw	(STR_2-__stringbase)& (0+255)
  1321  06EF  120A  118A  2207  120A  118A  	fcall	_printf
  1322                           
  1323                           ;main.c: 105: for(unsigned char i=0;i<8;i++)
  1324  06F4  1283               	bcf	3,5	;RP0=0, select bank0
  1325  06F5  1303               	bcf	3,6	;RP1=0, select bank0
  1326  06F6  01E8               	clrf	main@i
  1327  06F7  3008               	movlw	8
  1328  06F8  0268               	subwf	main@i,w
  1329  06F9  1803               	btfsc	3,0
  1330  06FA  2F14               	goto	l2361
  1331  06FB                     l164:	
  1332                           ;main.c: 106: {
  1333                           ;main.c: 107: while(!RCIF);
  1334                           
  1335  06FB  1E8C               	btfss	12,5	;volatile
  1336  06FC  2EFB               	goto	l164
  1337                           
  1338                           ;main.c: 108: DATA[i]=RCREG;
  1339  06FD  081A               	movf	26,w	;volatile
  1340  06FE  00E5               	movwf	??_main
  1341  06FF  0868               	movf	main@i,w
  1342  0700  3E20               	addlw	_DATA& (0+255)
  1343  0701  0084               	movwf	4
  1344  0702  0865               	movf	??_main,w
  1345  0703  1383               	bcf	3,7	;select IRP bank0
  1346  0704  0080               	movwf	0
  1347                           
  1348                           ;main.c: 109: TXREG=DATA[i];
  1349  0705  0868               	movf	main@i,w
  1350  0706  3E20               	addlw	_DATA& (0+255)
  1351  0707  0084               	movwf	4
  1352  0708  0800               	movf	0,w
  1353  0709  0099               	movwf	25	;volatile
  1354  070A                     l167:	
  1355                           ;main.c: 110: while(!TXIF);
  1356                           
  1357  070A  1E0C               	btfss	12,4	;volatile
  1358  070B  2F0A               	goto	l167
  1359  070C  3001               	movlw	1
  1360  070D  00E5               	movwf	??_main
  1361  070E  0865               	movf	??_main,w
  1362  070F  07E8               	addwf	main@i,f
  1363  0710  3008               	movlw	8
  1364  0711  0268               	subwf	main@i,w
  1365  0712  1C03               	skipc
  1366  0713  2EFB               	goto	l164
  1367  0714                     l2361:	
  1368                           
  1369                           ;main.c: 111: }
  1370                           ;main.c: 112: printf("\n\r\n");
  1371  0714  30E8               	movlw	(STR_2-__stringbase)& (0+255)
  1372  0715  120A  118A  2207  120A  118A  	fcall	_printf
  1373                           
  1374                           ;main.c: 113: date = Asci2BCD(DATA[0],DATA[1]);
  1375  071A  1283               	bcf	3,5	;RP0=0, select bank0
  1376  071B  1303               	bcf	3,6	;RP1=0, select bank0
  1377  071C  0821               	movf	_DATA+1,w
  1378  071D  00E5               	movwf	??_main
  1379  071E  0865               	movf	??_main,w
  1380  071F  00F0               	movwf	Asci2BCD@lower
  1381  0720  0820               	movf	_DATA,w
  1382  0721  120A  158A  272C  120A  118A  	fcall	_Asci2BCD
  1383  0726  1283               	bcf	3,5	;RP0=0, select bank0
  1384  0727  1303               	bcf	3,6	;RP1=0, select bank0
  1385  0728  00E6               	movwf	??_main+1
  1386  0729  0866               	movf	??_main+1,w
  1387  072A  00C2               	movwf	_date
  1388                           
  1389                           ;main.c: 114: month = Asci2BCD(DATA[3],DATA[4]);
  1390  072B  0824               	movf	_DATA+4,w
  1391  072C  00E5               	movwf	??_main
  1392  072D  0865               	movf	??_main,w
  1393  072E  00F0               	movwf	Asci2BCD@lower
  1394  072F  0823               	movf	_DATA+3,w
  1395  0730  120A  158A  272C  120A  118A  	fcall	_Asci2BCD
  1396  0735  1283               	bcf	3,5	;RP0=0, select bank0
  1397  0736  1303               	bcf	3,6	;RP1=0, select bank0
  1398  0737  00E6               	movwf	??_main+1
  1399  0738  0866               	movf	??_main+1,w
  1400  0739  00CC               	movwf	_month
  1401                           
  1402                           ;main.c: 115: year = Asci2BCD(DATA[6],DATA[7]);
  1403  073A  0827               	movf	_DATA+7,w
  1404  073B  00E5               	movwf	??_main
  1405  073C  0865               	movf	??_main,w
  1406  073D  00F0               	movwf	Asci2BCD@lower
  1407  073E  0826               	movf	_DATA+6,w
  1408  073F  120A  158A  272C  120A  118A  	fcall	_Asci2BCD
  1409  0744  1283               	bcf	3,5	;RP0=0, select bank0
  1410  0745  1303               	bcf	3,6	;RP1=0, select bank0
  1411  0746  00E6               	movwf	??_main+1
  1412  0747  0866               	movf	??_main+1,w
  1413  0748  00D2               	movwf	_year
  1414                           
  1415                           ;main.c: 118: i2c_start();
  1416  0749  120A  158A  26C2  120A  118A  	fcall	_i2c_start
  1417                           
  1418                           ;main.c: 119: i2c_send(0xD0);
  1419  074E  30D0               	movlw	208
  1420  074F  120A  158A  26AF  120A  118A  	fcall	_i2c_send
  1421                           
  1422                           ;main.c: 120: i2c_send(0x04);
  1423  0754  3004               	movlw	4
  1424  0755  120A  158A  26AF  120A  118A  	fcall	_i2c_send
  1425                           
  1426                           ;main.c: 121: i2c_send(date);
  1427  075A  1283               	bcf	3,5	;RP0=0, select bank0
  1428  075B  1303               	bcf	3,6	;RP1=0, select bank0
  1429  075C  0842               	movf	_date,w
  1430  075D  120A  158A  26AF  120A  118A  	fcall	_i2c_send
  1431                           
  1432                           ;main.c: 122: i2c_send(month);
  1433  0762  1283               	bcf	3,5	;RP0=0, select bank0
  1434  0763  1303               	bcf	3,6	;RP1=0, select bank0
  1435  0764  084C               	movf	_month,w
  1436  0765  120A  158A  26AF  120A  118A  	fcall	_i2c_send
  1437                           
  1438                           ;main.c: 123: i2c_send(year);
  1439  076A  1283               	bcf	3,5	;RP0=0, select bank0
  1440  076B  1303               	bcf	3,6	;RP1=0, select bank0
  1441  076C  0852               	movf	_year,w
  1442  076D  120A  158A  26AF  120A  118A  	fcall	_i2c_send
  1443                           
  1444                           ;main.c: 124: i2c_stop();
  1445  0772  120A  158A  26CC  120A  118A  	fcall	_i2c_stop
  1446  0777                     l2383:	
  1447                           
  1448                           ;main.c: 125: }
  1449                           ;main.c: 128: if (RD1==1)
  1450  0777  1283               	bcf	3,5	;RP0=0, select bank0
  1451  0778  1303               	bcf	3,6	;RP1=0, select bank0
  1452  0779  1C88               	btfss	8,1	;volatile
  1453  077A  2E0A               	goto	l2311
  1454                           
  1455                           ;main.c: 129: {
  1456                           ;main.c: 130: printf("Output from Potentiometer is :");
  1457  077B  3009               	movlw	(STR_6-__stringbase)& (0+255)
  1458  077C  120A  118A  2207  120A  118A  	fcall	_printf
  1459                           
  1460                           ;main.c: 131: printf("%x",pot);
  1461  0781  1283               	bcf	3,5	;RP0=0, select bank0
  1462  0782  1303               	bcf	3,6	;RP1=0, select bank0
  1463  0783  084D               	movf	_pot,w
  1464  0784  00E5               	movwf	??_main
  1465  0785  01E6               	clrf	??_main+1
  1466  0786  0865               	movf	??_main,w
  1467  0787  00F8               	movwf	?_printf
  1468  0788  0866               	movf	??_main+1,w
  1469  0789  00F9               	movwf	?_printf+1
  1470  078A  30EC               	movlw	(STR_7-__stringbase)& (0+255)
  1471  078B  120A  118A  2207  120A  118A  	fcall	_printf
  1472                           
  1473                           ;main.c: 132: printf("\n\r\n");
  1474  0790  30E8               	movlw	(STR_2-__stringbase)& (0+255)
  1475  0791  120A  118A  2207  120A  118A  	fcall	_printf
  1476                           
  1477                           ;main.c: 134: if(Button_1 == 0)
  1478  0796  1283               	bcf	3,5	;RP0=0, select bank0
  1479  0797  1303               	bcf	3,6	;RP1=0, select bank0
  1480  0798  08BE               	movf	_Button_1,f
  1481  0799  1D03               	skipz
  1482  079A  2F9D               	goto	l2391
  1483                           
  1484                           ;main.c: 135: printf("Button 1 is open");
  1485  079B  309B               	movlw	(STR_9-__stringbase)& (0+255)
  1486  079C  2F9E               	goto	L1
  1487  079D                     l2391:	
  1488                           
  1489                           ;main.c: 136: else
  1490                           ;main.c: 137: printf("Button 1 is close");
  1491  079D  3042               	movlw	(STR_10-__stringbase)& (0+255)
  1492  079E                     L1:	
  1493  079E  120A  118A  2207  120A  118A  	fcall	_printf
  1494                           
  1495                           ;main.c: 139: printf("\n\r\n");
  1496  07A3  30E8               	movlw	(STR_2-__stringbase)& (0+255)
  1497  07A4  120A  118A  2207  120A  118A  	fcall	_printf
  1498                           
  1499                           ;main.c: 141: if(Button_2 == 0)
  1500  07A9  1283               	bcf	3,5	;RP0=0, select bank0
  1501  07AA  1303               	bcf	3,6	;RP1=0, select bank0
  1502  07AB  08BF               	movf	_Button_2,f
  1503  07AC  1D03               	skipz
  1504  07AD  2FB0               	goto	l2397
  1505                           
  1506                           ;main.c: 142: printf("Button 2 is open");
  1507  07AE  30AC               	movlw	(STR_12-__stringbase)& (0+255)
  1508  07AF  2FB1               	goto	L2
  1509  07B0                     l2397:	
  1510                           
  1511                           ;main.c: 143: else
  1512                           ;main.c: 144: printf("Button 2 is close");
  1513  07B0  3054               	movlw	(STR_13-__stringbase)& (0+255)
  1514  07B1                     L2:	
  1515  07B1  120A  118A  2207  120A  118A  	fcall	_printf
  1516                           
  1517                           ;main.c: 146: printf("\n\r\n");
  1518  07B6  30E8               	movlw	(STR_2-__stringbase)& (0+255)
  1519  07B7  120A  118A  2207  120A  118A  	fcall	_printf
  1520                           
  1521                           ;main.c: 149: if(Button_3 == 0)
  1522  07BC  1283               	bcf	3,5	;RP0=0, select bank0
  1523  07BD  1303               	bcf	3,6	;RP1=0, select bank0
  1524  07BE  08C0               	movf	_Button_3,f
  1525  07BF  1D03               	skipz
  1526  07C0  2FC3               	goto	l2403
  1527                           
  1528                           ;main.c: 150: printf("Button 3 is open");
  1529  07C1  30BD               	movlw	(STR_15-__stringbase)& (0+255)
  1530  07C2  2FC4               	goto	L3
  1531  07C3                     l2403:	
  1532                           
  1533                           ;main.c: 151: else
  1534                           ;main.c: 152: printf("Button 3 is close");
  1535  07C3  3066               	movlw	(STR_16-__stringbase)& (0+255)
  1536  07C4                     L3:	
  1537  07C4  120A  118A  2207  120A  118A  	fcall	_printf
  1538                           
  1539                           ;main.c: 154: printf("\n\r\n");
  1540  07C9  30E8               	movlw	(STR_2-__stringbase)& (0+255)
  1541  07CA  120A  118A  2207  120A  118A  	fcall	_printf
  1542                           
  1543                           ;main.c: 156: if(Button_4 == 0)
  1544  07CF  1283               	bcf	3,5	;RP0=0, select bank0
  1545  07D0  1303               	bcf	3,6	;RP1=0, select bank0
  1546  07D1  08C1               	movf	_Button_4,f
  1547  07D2  1D03               	skipz
  1548  07D3  2FD6               	goto	l2409
  1549                           
  1550                           ;main.c: 157: printf("Button 4 is open");
  1551  07D4  30CE               	movlw	(STR_18-__stringbase)& (0+255)
  1552  07D5  2FD7               	goto	L4
  1553  07D6                     l2409:	
  1554                           
  1555                           ;main.c: 158: else
  1556                           ;main.c: 159: printf("Button 4 is close");
  1557  07D6  3078               	movlw	(STR_19-__stringbase)& (0+255)
  1558  07D7                     L4:	
  1559  07D7  120A  118A  2207  120A  118A  	fcall	_printf
  1560                           
  1561                           ;main.c: 161: printf("\n\r\n");
  1562  07DC  30E8               	movlw	(STR_2-__stringbase)& (0+255)
  1563  07DD  120A  118A  2207  120A  118A  	fcall	_printf
  1564  07E2  2E0A               	goto	l2311
  1565  07E3                     __end_of_main:	
  1566                           
  1567                           	psect	text1
  1568  043F                     __ptext1:	
  1569 ;; *************** function _store_data *****************
  1570 ;; Defined at:
  1571 ;;		line 213 in file "D:\WALEED\live_person\mutaz\Project\main.c"
  1572 ;; Parameters:    Size  Location     Type
  1573 ;;		None
  1574 ;; Auto vars:     Size  Location     Type
  1575 ;;		None
  1576 ;; Return value:  Size  Location     Type
  1577 ;;		None               void
  1578 ;; Registers used:
  1579 ;;		wreg, status,2, status,0, pclath, cstack
  1580 ;; Tracked objects:
  1581 ;;		On entry : 0/0
  1582 ;;		On exit  : 0/0
  1583 ;;		Unchanged: 0/0
  1584 ;; Data sizes:     COMMON   BANK0   BANK1   BANK3   BANK2
  1585 ;;      Params:         0       0       0       0       0
  1586 ;;      Locals:         0       0       0       0       0
  1587 ;;      Temps:          0       2       0       0       0
  1588 ;;      Totals:         0       2       0       0       0
  1589 ;;Total ram usage:        2 bytes
  1590 ;; Hardware stack levels used:    1
  1591 ;; Hardware stack levels required when called:    2
  1592 ;; This function calls:
  1593 ;;		_BCD2Dec
  1594 ;;		___ftdiv
  1595 ;;		___ftmul
  1596 ;;		___fttol
  1597 ;;		___lwtoft
  1598 ;;		___wmul
  1599 ;;		_rtc1307_read
  1600 ;; This function is called by:
  1601 ;;		_main
  1602 ;; This function uses a non-reentrant model
  1603 ;;
  1604                           
  1605                           
  1606                           ;psect for function _store_data
  1607  043F                     _store_data:	
  1608                           
  1609                           ;main.c: 216: GO = 1;
  1610                           
  1611                           ;incstack = 0
  1612                           ; Regs used in _store_data: [wreg+status,2+status,0+pclath+cstack]
  1613  043F  1283               	bcf	3,5	;RP0=0, select bank0
  1614  0440  1303               	bcf	3,6	;RP1=0, select bank0
  1615  0441  151F               	bsf	31,2	;volatile
  1616  0442                     l199:	
  1617                           ;main.c: 217: while(GO == 1);
  1618                           
  1619  0442  191F               	btfsc	31,2	;volatile
  1620  0443  2C42               	goto	l199
  1621                           
  1622                           ;main.c: 218: ADL = ADRESL;
  1623  0444  1683               	bsf	3,5	;RP0=1, select bank1
  1624  0445  1303               	bcf	3,6	;RP1=0, select bank1
  1625  0446  081E               	movf	30,w	;volatile
  1626  0447  1283               	bcf	3,5	;RP0=0, select bank0
  1627  0448  1303               	bcf	3,6	;RP1=0, select bank0
  1628  0449  00E3               	movwf	??_store_data
  1629  044A  0863               	movf	??_store_data,w
  1630  044B  00BD               	movwf	_ADL
  1631                           
  1632                           ;main.c: 219: ADH = ADRESH;
  1633  044C  081E               	movf	30,w	;volatile
  1634  044D  00E3               	movwf	??_store_data
  1635  044E  0863               	movf	??_store_data,w
  1636  044F  00BC               	movwf	_ADH
  1637                           
  1638                           ;main.c: 220: adc_value = ADH,
  1639                           ;main.c: 221: adc_value = adc_value << 8;
  1640  0450  083C               	movf	_ADH,w
  1641  0451  00E3               	movwf	??_store_data
  1642  0452  01E4               	clrf	??_store_data+1
  1643  0453  0863               	movf	??_store_data,w
  1644  0454  00B9               	movwf	_adc_value
  1645  0455  0864               	movf	??_store_data+1,w
  1646  0456  00BA               	movwf	_adc_value+1
  1647  0457  0839               	movf	_adc_value,w
  1648  0458  00E4               	movwf	??_store_data+1
  1649  0459  01E3               	clrf	??_store_data
  1650  045A  0863               	movf	??_store_data,w
  1651  045B  00B9               	movwf	_adc_value
  1652  045C  0864               	movf	??_store_data+1,w
  1653  045D  00BA               	movwf	_adc_value+1
  1654                           
  1655                           ;main.c: 222: adc_value = adc_value | ADL;
  1656  045E  0839               	movf	_adc_value,w
  1657  045F  043D               	iorwf	_ADL,w
  1658  0460  00B9               	movwf	_adc_value
  1659  0461  083A               	movf	_adc_value+1,w
  1660  0462  00BA               	movwf	_adc_value+1
  1661                           
  1662                           ;main.c: 223: val = adc_value * ref;
  1663  0463  0869               	movf	_ref,w
  1664  0464  00D3               	movwf	___ftmul@f1
  1665  0465  086A               	movf	_ref+1,w
  1666  0466  00D4               	movwf	___ftmul@f1+1
  1667  0467  086B               	movf	_ref+2,w
  1668  0468  00D5               	movwf	___ftmul@f1+2
  1669  0469  083A               	movf	_adc_value+1,w
  1670  046A  01F9               	clrf	___lwtoft@c+1
  1671  046B  07F9               	addwf	___lwtoft@c+1,f
  1672  046C  0839               	movf	_adc_value,w
  1673  046D  01F8               	clrf	___lwtoft@c
  1674  046E  07F8               	addwf	___lwtoft@c,f
  1675  046F  120A  118A  20FF  120A  118A  	fcall	___lwtoft
  1676  0474  0878               	movf	?___lwtoft,w
  1677  0475  1283               	bcf	3,5	;RP0=0, select bank0
  1678  0476  1303               	bcf	3,6	;RP1=0, select bank0
  1679  0477  00D6               	movwf	___ftmul@f2
  1680  0478  0879               	movf	?___lwtoft+1,w
  1681  0479  00D7               	movwf	___ftmul@f2+1
  1682  047A  087A               	movf	?___lwtoft+2,w
  1683  047B  00D8               	movwf	___ftmul@f2+2
  1684  047C  120A  118A  236C  120A  118A  	fcall	___ftmul
  1685  0481  1283               	bcf	3,5	;RP0=0, select bank0
  1686  0482  1303               	bcf	3,6	;RP1=0, select bank0
  1687  0483  0853               	movf	?___ftmul,w
  1688  0484  00A8               	movwf	_val
  1689  0485  0854               	movf	?___ftmul+1,w
  1690  0486  00A9               	movwf	_val+1
  1691  0487  0855               	movf	?___ftmul+2,w
  1692  0488  00AA               	movwf	_val+2
  1693                           
  1694                           ;main.c: 224: val = val/10;
  1695  0489  3000               	movlw	0
  1696  048A  00F8               	movwf	___ftdiv@f2
  1697  048B  3020               	movlw	32
  1698  048C  00F9               	movwf	___ftdiv@f2+1
  1699  048D  3041               	movlw	65
  1700  048E  00FA               	movwf	___ftdiv@f2+2
  1701  048F  0828               	movf	_val,w
  1702  0490  00FB               	movwf	___ftdiv@f1
  1703  0491  0829               	movf	_val+1,w
  1704  0492  00FC               	movwf	___ftdiv@f1+1
  1705  0493  082A               	movf	_val+2,w
  1706  0494  00FD               	movwf	___ftdiv@f1+2
  1707  0495  120A  118A  22B6  120A  118A  	fcall	___ftdiv
  1708  049A  0878               	movf	?___ftdiv,w
  1709  049B  1283               	bcf	3,5	;RP0=0, select bank0
  1710  049C  1303               	bcf	3,6	;RP1=0, select bank0
  1711  049D  00A8               	movwf	_val
  1712  049E  0879               	movf	?___ftdiv+1,w
  1713  049F  00A9               	movwf	_val+1
  1714  04A0  087A               	movf	?___ftdiv+2,w
  1715  04A1  00AA               	movwf	_val+2
  1716                           
  1717                           ;main.c: 225: val = val/10;
  1718  04A2  3000               	movlw	0
  1719  04A3  00F8               	movwf	___ftdiv@f2
  1720  04A4  3020               	movlw	32
  1721  04A5  00F9               	movwf	___ftdiv@f2+1
  1722  04A6  3041               	movlw	65
  1723  04A7  00FA               	movwf	___ftdiv@f2+2
  1724  04A8  0828               	movf	_val,w
  1725  04A9  00FB               	movwf	___ftdiv@f1
  1726  04AA  0829               	movf	_val+1,w
  1727  04AB  00FC               	movwf	___ftdiv@f1+1
  1728  04AC  082A               	movf	_val+2,w
  1729  04AD  00FD               	movwf	___ftdiv@f1+2
  1730  04AE  120A  118A  22B6  120A  118A  	fcall	___ftdiv
  1731  04B3  0878               	movf	?___ftdiv,w
  1732  04B4  1283               	bcf	3,5	;RP0=0, select bank0
  1733  04B5  1303               	bcf	3,6	;RP1=0, select bank0
  1734  04B6  00A8               	movwf	_val
  1735  04B7  0879               	movf	?___ftdiv+1,w
  1736  04B8  00A9               	movwf	_val+1
  1737  04B9  087A               	movf	?___ftdiv+2,w
  1738  04BA  00AA               	movwf	_val+2
  1739                           
  1740                           ;main.c: 226: val = val/10;
  1741  04BB  3000               	movlw	0
  1742  04BC  00F8               	movwf	___ftdiv@f2
  1743  04BD  3020               	movlw	32
  1744  04BE  00F9               	movwf	___ftdiv@f2+1
  1745  04BF  3041               	movlw	65
  1746  04C0  00FA               	movwf	___ftdiv@f2+2
  1747  04C1  0828               	movf	_val,w
  1748  04C2  00FB               	movwf	___ftdiv@f1
  1749  04C3  0829               	movf	_val+1,w
  1750  04C4  00FC               	movwf	___ftdiv@f1+1
  1751  04C5  082A               	movf	_val+2,w
  1752  04C6  00FD               	movwf	___ftdiv@f1+2
  1753  04C7  120A  118A  22B6  120A  118A  	fcall	___ftdiv
  1754  04CC  0878               	movf	?___ftdiv,w
  1755  04CD  1283               	bcf	3,5	;RP0=0, select bank0
  1756  04CE  1303               	bcf	3,6	;RP1=0, select bank0
  1757  04CF  00A8               	movwf	_val
  1758  04D0  0879               	movf	?___ftdiv+1,w
  1759  04D1  00A9               	movwf	_val+1
  1760  04D2  087A               	movf	?___ftdiv+2,w
  1761  04D3  00AA               	movwf	_val+2
  1762                           
  1763                           ;main.c: 227: pot = val;
  1764  04D4  0828               	movf	_val,w
  1765  04D5  00F0               	movwf	___fttol@f1
  1766  04D6  0829               	movf	_val+1,w
  1767  04D7  00F1               	movwf	___fttol@f1+1
  1768  04D8  082A               	movf	_val+2,w
  1769  04D9  00F2               	movwf	___fttol@f1+2
  1770  04DA  120A  118A  217B  120A  118A  	fcall	___fttol
  1771  04DF  0870               	movf	?___fttol,w
  1772  04E0  1283               	bcf	3,5	;RP0=0, select bank0
  1773  04E1  1303               	bcf	3,6	;RP1=0, select bank0
  1774  04E2  00E3               	movwf	??_store_data
  1775  04E3  0863               	movf	??_store_data,w
  1776  04E4  00CD               	movwf	_pot
  1777                           
  1778                           ;main.c: 229: Button_1 = RA1;
  1779  04E5  3000               	movlw	0
  1780  04E6  1885               	btfsc	5,1	;volatile
  1781  04E7  3001               	movlw	1
  1782  04E8  00BE               	movwf	_Button_1
  1783                           
  1784                           ;main.c: 230: Button_2 = RA2;
  1785  04E9  3000               	movlw	0
  1786  04EA  1905               	btfsc	5,2	;volatile
  1787  04EB  3001               	movlw	1
  1788  04EC  00BF               	movwf	_Button_2
  1789                           
  1790                           ;main.c: 231: Button_3 = RA3;
  1791  04ED  3000               	movlw	0
  1792  04EE  1985               	btfsc	5,3	;volatile
  1793  04EF  3001               	movlw	1
  1794  04F0  00C0               	movwf	_Button_3
  1795                           
  1796                           ;main.c: 232: Button_4 = RA4;
  1797  04F1  3000               	movlw	0
  1798  04F2  1A05               	btfsc	5,4	;volatile
  1799  04F3  3001               	movlw	1
  1800  04F4  00C1               	movwf	_Button_4
  1801                           
  1802                           ;main.c: 235: sec_1 = rtc1307_read(0x00);
  1803  04F5  3000               	movlw	0
  1804  04F6  120A  158A  2793  120A  118A  	fcall	_rtc1307_read
  1805  04FB  1283               	bcf	3,5	;RP0=0, select bank0
  1806  04FC  1303               	bcf	3,6	;RP1=0, select bank0
  1807  04FD  00E3               	movwf	??_store_data
  1808  04FE  0863               	movf	??_store_data,w
  1809  04FF  00D1               	movwf	_sec_1
  1810                           
  1811                           ;main.c: 236: min_1 = rtc1307_read(0x01);
  1812  0500  3001               	movlw	1
  1813  0501  120A  158A  2793  120A  118A  	fcall	_rtc1307_read
  1814  0506  1283               	bcf	3,5	;RP0=0, select bank0
  1815  0507  1303               	bcf	3,6	;RP1=0, select bank0
  1816  0508  00E3               	movwf	??_store_data
  1817  0509  0863               	movf	??_store_data,w
  1818  050A  00CB               	movwf	_min_1
  1819                           
  1820                           ;main.c: 237: hour_1 = rtc1307_read(0x02);
  1821  050B  3002               	movlw	2
  1822  050C  120A  158A  2793  120A  118A  	fcall	_rtc1307_read
  1823  0511  1283               	bcf	3,5	;RP0=0, select bank0
  1824  0512  1303               	bcf	3,6	;RP1=0, select bank0
  1825  0513  00E3               	movwf	??_store_data
  1826  0514  0863               	movf	??_store_data,w
  1827  0515  00C7               	movwf	_hour_1
  1828                           
  1829                           ;main.c: 239: s1 = BCD2Dec(sec_1);
  1830  0516  0851               	movf	_sec_1,w
  1831  0517  120A  158A  276E  120A  118A  	fcall	_BCD2Dec
  1832  051C  1283               	bcf	3,5	;RP0=0, select bank0
  1833  051D  1303               	bcf	3,6	;RP1=0, select bank0
  1834  051E  00E3               	movwf	??_store_data
  1835  051F  0863               	movf	??_store_data,w
  1836  0520  00CF               	movwf	_s1
  1837                           
  1838                           ;main.c: 240: m1 = BCD2Dec(min_1);
  1839  0521  084B               	movf	_min_1,w
  1840  0522  120A  158A  276E  120A  118A  	fcall	_BCD2Dec
  1841  0527  1283               	bcf	3,5	;RP0=0, select bank0
  1842  0528  1303               	bcf	3,6	;RP1=0, select bank0
  1843  0529  00E3               	movwf	??_store_data
  1844  052A  0863               	movf	??_store_data,w
  1845  052B  00C9               	movwf	_m1
  1846                           
  1847                           ;main.c: 241: h1 = BCD2Dec(hour_1);
  1848  052C  0847               	movf	_hour_1,w
  1849  052D  120A  158A  276E  120A  118A  	fcall	_BCD2Dec
  1850  0532  1283               	bcf	3,5	;RP0=0, select bank0
  1851  0533  1303               	bcf	3,6	;RP1=0, select bank0
  1852  0534  00E3               	movwf	??_store_data
  1853  0535  0863               	movf	??_store_data,w
  1854  0536  00C5               	movwf	_h1
  1855                           
  1856                           ;main.c: 242: H_1 = h1 * 3600;
  1857  0537  0845               	movf	_h1,w
  1858  0538  00E3               	movwf	??_store_data
  1859  0539  01E4               	clrf	??_store_data+1
  1860  053A  0863               	movf	??_store_data,w
  1861  053B  00F0               	movwf	___wmul@multiplier
  1862  053C  0864               	movf	??_store_data+1,w
  1863  053D  00F1               	movwf	___wmul@multiplier+1
  1864  053E  3010               	movlw	16
  1865  053F  00F2               	movwf	___wmul@multiplicand
  1866  0540  300E               	movlw	14
  1867  0541  00F3               	movwf	___wmul@multiplicand+1
  1868  0542  120A  158A  274B  120A  118A  	fcall	___wmul
  1869  0547  0871               	movf	?___wmul+1,w
  1870  0548  1283               	bcf	3,5	;RP0=0, select bank0
  1871  0549  1303               	bcf	3,6	;RP1=0, select bank0
  1872  054A  01B0               	clrf	_H_1+1
  1873  054B  07B0               	addwf	_H_1+1,f
  1874  054C  0870               	movf	?___wmul,w
  1875  054D  01AF               	clrf	_H_1
  1876  054E  07AF               	addwf	_H_1,f
  1877                           
  1878                           ;main.c: 243: M_1 = m1 * 60;
  1879  054F  0849               	movf	_m1,w
  1880  0550  00E3               	movwf	??_store_data
  1881  0551  01E4               	clrf	??_store_data+1
  1882  0552  0863               	movf	??_store_data,w
  1883  0553  00F0               	movwf	___wmul@multiplier
  1884  0554  0864               	movf	??_store_data+1,w
  1885  0555  00F1               	movwf	___wmul@multiplier+1
  1886  0556  303C               	movlw	60
  1887  0557  00F2               	movwf	___wmul@multiplicand
  1888  0558  3000               	movlw	0
  1889  0559  00F3               	movwf	___wmul@multiplicand+1
  1890  055A  120A  158A  274B   	fcall	___wmul
  1891  055D  0871               	movf	?___wmul+1,w
  1892  055E  1283               	bcf	3,5	;RP0=0, select bank0
  1893  055F  1303               	bcf	3,6	;RP1=0, select bank0
  1894  0560  01B4               	clrf	_M_1+1
  1895  0561  07B4               	addwf	_M_1+1,f
  1896  0562  0870               	movf	?___wmul,w
  1897  0563  01B3               	clrf	_M_1
  1898  0564  07B3               	addwf	_M_1,f
  1899                           
  1900                           ;main.c: 244: S_1 = H_1 + M_1 + s1;
  1901  0565  084F               	movf	_s1,w
  1902  0566  072F               	addwf	_H_1,w
  1903  0567  00E3               	movwf	??_store_data
  1904  0568  0830               	movf	_H_1+1,w
  1905  0569  1803               	skipnc
  1906  056A  0A30               	incf	_H_1+1,w
  1907  056B  00E4               	movwf	??_store_data+1
  1908  056C  0833               	movf	_M_1,w
  1909  056D  0763               	addwf	??_store_data,w
  1910  056E  00B7               	movwf	_S_1
  1911  056F  0834               	movf	_M_1+1,w
  1912  0570  1803               	skipnc
  1913  0571  0A34               	incf	_M_1+1,w
  1914  0572  0764               	addwf	??_store_data+1,w
  1915  0573  00B8               	movwf	_S_1+1
  1916  0574  0008               	return
  1917  0575                     __end_of_store_data:	
  1918                           
  1919                           	psect	text2
  1920  0F93                     __ptext2:	
  1921 ;; *************** function _rtc1307_read *****************
  1922 ;; Defined at:
  1923 ;;		line 54 in file "D:\WALEED\live_person\mutaz\Project\i2c_rtc.c"
  1924 ;; Parameters:    Size  Location     Type
  1925 ;;  address         1    wreg     unsigned char 
  1926 ;; Auto vars:     Size  Location     Type
  1927 ;;  address         1    2[COMMON] unsigned char 
  1928 ;;  temp            1    3[COMMON] unsigned char 
  1929 ;; Return value:  Size  Location     Type
  1930 ;;                  1    wreg      unsigned char 
  1931 ;; Registers used:
  1932 ;;		wreg, status,2, status,0, pclath, cstack
  1933 ;; Tracked objects:
  1934 ;;		On entry : 0/0
  1935 ;;		On exit  : 0/0
  1936 ;;		Unchanged: 0/0
  1937 ;; Data sizes:     COMMON   BANK0   BANK1   BANK3   BANK2
  1938 ;;      Params:         0       0       0       0       0
  1939 ;;      Locals:         2       0       0       0       0
  1940 ;;      Temps:          1       0       0       0       0
  1941 ;;      Totals:         3       0       0       0       0
  1942 ;;Total ram usage:        3 bytes
  1943 ;; Hardware stack levels used:    1
  1944 ;; Hardware stack levels required when called:    1
  1945 ;; This function calls:
  1946 ;;		_i2c_nak
  1947 ;;		_i2c_read
  1948 ;;		_i2c_restart
  1949 ;;		_i2c_send
  1950 ;;		_i2c_start
  1951 ;;		_i2c_stop
  1952 ;; This function is called by:
  1953 ;;		_main
  1954 ;;		_store_data
  1955 ;; This function uses a non-reentrant model
  1956 ;;
  1957                           
  1958                           
  1959                           ;psect for function _rtc1307_read
  1960  0F93                     _rtc1307_read:	
  1961                           
  1962                           ;incstack = 0
  1963                           ; Regs used in _rtc1307_read: [wreg+status,2+status,0+pclath+cstack]
  1964                           ;rtc1307_read@address stored from wreg
  1965  0F93  00F2               	movwf	rtc1307_read@address
  1966                           
  1967                           ;i2c_rtc.c: 57: unsigned char temp;
  1968                           ;i2c_rtc.c: 58: i2c_start();
  1969  0F94  120A  158A  26C2  120A  158A  	fcall	_i2c_start
  1970                           
  1971                           ;i2c_rtc.c: 59: i2c_send(0xD0);
  1972  0F99  30D0               	movlw	208
  1973  0F9A  120A  158A  26AF  120A  158A  	fcall	_i2c_send
  1974                           
  1975                           ;i2c_rtc.c: 60: i2c_send(address);
  1976  0F9F  0872               	movf	rtc1307_read@address,w
  1977  0FA0  120A  158A  26AF  120A  158A  	fcall	_i2c_send
  1978                           
  1979                           ;i2c_rtc.c: 61: i2c_restart();
  1980  0FA5  120A  158A  26B8  120A  158A  	fcall	_i2c_restart
  1981                           
  1982                           ;i2c_rtc.c: 62: i2c_send(0xD1);
  1983  0FAA  30D1               	movlw	209
  1984  0FAB  120A  158A  26AF  120A  158A  	fcall	_i2c_send
  1985                           
  1986                           ;i2c_rtc.c: 63: temp = i2c_read();
  1987  0FB0  120A  158A  26E1  120A  158A  	fcall	_i2c_read
  1988  0FB5  00F1               	movwf	??_rtc1307_read
  1989  0FB6  0871               	movf	??_rtc1307_read,w
  1990  0FB7  00F3               	movwf	rtc1307_read@temp
  1991                           
  1992                           ;i2c_rtc.c: 64: i2c_nak();
  1993  0FB8  120A  158A  26D6  120A  158A  	fcall	_i2c_nak
  1994                           
  1995                           ;i2c_rtc.c: 65: i2c_stop();
  1996  0FBD  120A  158A  26CC   	fcall	_i2c_stop
  1997                           
  1998                           ;i2c_rtc.c: 66: return temp;
  1999  0FC0  0873               	movf	rtc1307_read@temp,w
  2000  0FC1  0008               	return
  2001  0FC2                     __end_of_rtc1307_read:	
  2002                           
  2003                           	psect	text3
  2004  0ECC                     __ptext3:	
  2005 ;; *************** function _i2c_stop *****************
  2006 ;; Defined at:
  2007 ;;		line 28 in file "D:\WALEED\live_person\mutaz\Project\i2c_unitec.c"
  2008 ;; Parameters:    Size  Location     Type
  2009 ;;		None
  2010 ;; Auto vars:     Size  Location     Type
  2011 ;;		None
  2012 ;; Return value:  Size  Location     Type
  2013 ;;		None               void
  2014 ;; Registers used:
  2015 ;;		None
  2016 ;; Tracked objects:
  2017 ;;		On entry : 0/0
  2018 ;;		On exit  : 0/0
  2019 ;;		Unchanged: 0/0
  2020 ;; Data sizes:     COMMON   BANK0   BANK1   BANK3   BANK2
  2021 ;;      Params:         0       0       0       0       0
  2022 ;;      Locals:         0       0       0       0       0
  2023 ;;      Temps:          0       0       0       0       0
  2024 ;;      Totals:         0       0       0       0       0
  2025 ;;Total ram usage:        0 bytes
  2026 ;; Hardware stack levels used:    1
  2027 ;; This function calls:
  2028 ;;		Nothing
  2029 ;; This function is called by:
  2030 ;;		_main
  2031 ;;		_rtc1307_read
  2032 ;; This function uses a non-reentrant model
  2033 ;;
  2034                           
  2035                           
  2036                           ;psect for function _i2c_stop
  2037  0ECC                     _i2c_stop:	
  2038                           
  2039                           ;i2c_unitec.c: 30: SSPIF=0;
  2040                           
  2041                           ;incstack = 0
  2042                           ; Regs used in _i2c_stop: []
  2043  0ECC  1283               	bcf	3,5	;RP0=0, select bank0
  2044  0ECD  1303               	bcf	3,6	;RP1=0, select bank0
  2045  0ECE  118C               	bcf	12,3	;volatile
  2046                           
  2047                           ;i2c_unitec.c: 31: PEN=1;
  2048  0ECF  1683               	bsf	3,5	;RP0=1, select bank1
  2049  0ED0  1303               	bcf	3,6	;RP1=0, select bank1
  2050  0ED1  1511               	bsf	17,2	;volatile
  2051  0ED2                     l822:	
  2052                           ;i2c_unitec.c: 32: while(!SSPIF);
  2053                           
  2054  0ED2  1283               	bcf	3,5	;RP0=0, select bank0
  2055  0ED3  198C               	btfsc	12,3	;volatile
  2056  0ED4  0008               	return
  2057  0ED5  2ED2               	goto	l822
  2058  0ED6                     __end_of_i2c_stop:	
  2059                           
  2060                           	psect	text4
  2061  0EC2                     __ptext4:	
  2062 ;; *************** function _i2c_start *****************
  2063 ;; Defined at:
  2064 ;;		line 14 in file "D:\WALEED\live_person\mutaz\Project\i2c_unitec.c"
  2065 ;; Parameters:    Size  Location     Type
  2066 ;;		None
  2067 ;; Auto vars:     Size  Location     Type
  2068 ;;		None
  2069 ;; Return value:  Size  Location     Type
  2070 ;;		None               void
  2071 ;; Registers used:
  2072 ;;		None
  2073 ;; Tracked objects:
  2074 ;;		On entry : 0/0
  2075 ;;		On exit  : 0/0
  2076 ;;		Unchanged: 0/0
  2077 ;; Data sizes:     COMMON   BANK0   BANK1   BANK3   BANK2
  2078 ;;      Params:         0       0       0       0       0
  2079 ;;      Locals:         0       0       0       0       0
  2080 ;;      Temps:          0       0       0       0       0
  2081 ;;      Totals:         0       0       0       0       0
  2082 ;;Total ram usage:        0 bytes
  2083 ;; Hardware stack levels used:    1
  2084 ;; This function calls:
  2085 ;;		Nothing
  2086 ;; This function is called by:
  2087 ;;		_main
  2088 ;;		_rtc1307_read
  2089 ;; This function uses a non-reentrant model
  2090 ;;
  2091                           
  2092                           
  2093                           ;psect for function _i2c_start
  2094  0EC2                     _i2c_start:	
  2095                           
  2096                           ;i2c_unitec.c: 16: SSPIF=0;
  2097                           
  2098                           ;incstack = 0
  2099                           ; Regs used in _i2c_start: []
  2100  0EC2  1283               	bcf	3,5	;RP0=0, select bank0
  2101  0EC3  1303               	bcf	3,6	;RP1=0, select bank0
  2102  0EC4  118C               	bcf	12,3	;volatile
  2103                           
  2104                           ;i2c_unitec.c: 17: SEN=1;
  2105  0EC5  1683               	bsf	3,5	;RP0=1, select bank1
  2106  0EC6  1303               	bcf	3,6	;RP1=0, select bank1
  2107  0EC7  1411               	bsf	17,0	;volatile
  2108  0EC8                     l810:	
  2109                           ;i2c_unitec.c: 18: while(!SSPIF);
  2110                           
  2111  0EC8  1283               	bcf	3,5	;RP0=0, select bank0
  2112  0EC9  198C               	btfsc	12,3	;volatile
  2113  0ECA  0008               	return
  2114  0ECB  2EC8               	goto	l810
  2115  0ECC                     __end_of_i2c_start:	
  2116                           
  2117                           	psect	text5
  2118  0EAF                     __ptext5:	
  2119 ;; *************** function _i2c_send *****************
  2120 ;; Defined at:
  2121 ;;		line 35 in file "D:\WALEED\live_person\mutaz\Project\i2c_unitec.c"
  2122 ;; Parameters:    Size  Location     Type
  2123 ;;  dat             1    wreg     unsigned char 
  2124 ;; Auto vars:     Size  Location     Type
  2125 ;;  dat             1    0[COMMON] unsigned char 
  2126 ;; Return value:  Size  Location     Type
  2127 ;;		None               void
  2128 ;; Registers used:
  2129 ;;		wreg
  2130 ;; Tracked objects:
  2131 ;;		On entry : 0/0
  2132 ;;		On exit  : 0/0
  2133 ;;		Unchanged: 0/0
  2134 ;; Data sizes:     COMMON   BANK0   BANK1   BANK3   BANK2
  2135 ;;      Params:         0       0       0       0       0
  2136 ;;      Locals:         1       0       0       0       0
  2137 ;;      Temps:          0       0       0       0       0
  2138 ;;      Totals:         1       0       0       0       0
  2139 ;;Total ram usage:        1 bytes
  2140 ;; Hardware stack levels used:    1
  2141 ;; This function calls:
  2142 ;;		Nothing
  2143 ;; This function is called by:
  2144 ;;		_main
  2145 ;;		_rtc1307_read
  2146 ;; This function uses a non-reentrant model
  2147 ;;
  2148                           
  2149                           
  2150                           ;psect for function _i2c_send
  2151  0EAF                     _i2c_send:	
  2152                           
  2153                           ;incstack = 0
  2154                           ; Regs used in _i2c_send: [wreg]
  2155                           ;i2c_send@dat stored from wreg
  2156  0EAF  00F0               	movwf	i2c_send@dat
  2157                           
  2158                           ;i2c_unitec.c: 37: SSPIF=0;
  2159  0EB0  1283               	bcf	3,5	;RP0=0, select bank0
  2160  0EB1  1303               	bcf	3,6	;RP1=0, select bank0
  2161  0EB2  118C               	bcf	12,3	;volatile
  2162                           
  2163                           ;i2c_unitec.c: 38: SSPBUF = dat;
  2164  0EB3  0870               	movf	i2c_send@dat,w
  2165  0EB4  0093               	movwf	19	;volatile
  2166  0EB5                     l828:	
  2167                           ;i2c_unitec.c: 39: while(!SSPIF);
  2168                           
  2169  0EB5  198C               	btfsc	12,3	;volatile
  2170  0EB6  0008               	return
  2171  0EB7  2EB5               	goto	l828
  2172  0EB8                     __end_of_i2c_send:	
  2173                           
  2174                           	psect	text6
  2175  0EB8                     __ptext6:	
  2176 ;; *************** function _i2c_restart *****************
  2177 ;; Defined at:
  2178 ;;		line 21 in file "D:\WALEED\live_person\mutaz\Project\i2c_unitec.c"
  2179 ;; Parameters:    Size  Location     Type
  2180 ;;		None
  2181 ;; Auto vars:     Size  Location     Type
  2182 ;;		None
  2183 ;; Return value:  Size  Location     Type
  2184 ;;		None               void
  2185 ;; Registers used:
  2186 ;;		None
  2187 ;; Tracked objects:
  2188 ;;		On entry : 0/0
  2189 ;;		On exit  : 0/0
  2190 ;;		Unchanged: 0/0
  2191 ;; Data sizes:     COMMON   BANK0   BANK1   BANK3   BANK2
  2192 ;;      Params:         0       0       0       0       0
  2193 ;;      Locals:         0       0       0       0       0
  2194 ;;      Temps:          0       0       0       0       0
  2195 ;;      Totals:         0       0       0       0       0
  2196 ;;Total ram usage:        0 bytes
  2197 ;; Hardware stack levels used:    1
  2198 ;; This function calls:
  2199 ;;		Nothing
  2200 ;; This function is called by:
  2201 ;;		_rtc1307_read
  2202 ;; This function uses a non-reentrant model
  2203 ;;
  2204                           
  2205                           
  2206                           ;psect for function _i2c_restart
  2207  0EB8                     _i2c_restart:	
  2208                           
  2209                           ;i2c_unitec.c: 23: SSPIF=0;
  2210                           
  2211                           ;incstack = 0
  2212                           ; Regs used in _i2c_restart: []
  2213  0EB8  1283               	bcf	3,5	;RP0=0, select bank0
  2214  0EB9  1303               	bcf	3,6	;RP1=0, select bank0
  2215  0EBA  118C               	bcf	12,3	;volatile
  2216                           
  2217                           ;i2c_unitec.c: 24: RSEN=1;
  2218  0EBB  1683               	bsf	3,5	;RP0=1, select bank1
  2219  0EBC  1303               	bcf	3,6	;RP1=0, select bank1
  2220  0EBD  1491               	bsf	17,1	;volatile
  2221  0EBE                     l816:	
  2222                           ;i2c_unitec.c: 25: while(!SSPIF);
  2223                           
  2224  0EBE  1283               	bcf	3,5	;RP0=0, select bank0
  2225  0EBF  198C               	btfsc	12,3	;volatile
  2226  0EC0  0008               	return
  2227  0EC1  2EBE               	goto	l816
  2228  0EC2                     __end_of_i2c_restart:	
  2229                           
  2230                           	psect	text7
  2231  0EE1                     __ptext7:	
  2232 ;; *************** function _i2c_read *****************
  2233 ;; Defined at:
  2234 ;;		line 42 in file "D:\WALEED\live_person\mutaz\Project\i2c_unitec.c"
  2235 ;; Parameters:    Size  Location     Type
  2236 ;;		None
  2237 ;; Auto vars:     Size  Location     Type
  2238 ;;		None
  2239 ;; Return value:  Size  Location     Type
  2240 ;;                  1    wreg      unsigned char 
  2241 ;; Registers used:
  2242 ;;		wreg
  2243 ;; Tracked objects:
  2244 ;;		On entry : 0/0
  2245 ;;		On exit  : 0/0
  2246 ;;		Unchanged: 0/0
  2247 ;; Data sizes:     COMMON   BANK0   BANK1   BANK3   BANK2
  2248 ;;      Params:         0       0       0       0       0
  2249 ;;      Locals:         0       0       0       0       0
  2250 ;;      Temps:          0       0       0       0       0
  2251 ;;      Totals:         0       0       0       0       0
  2252 ;;Total ram usage:        0 bytes
  2253 ;; Hardware stack levels used:    1
  2254 ;; This function calls:
  2255 ;;		Nothing
  2256 ;; This function is called by:
  2257 ;;		_rtc1307_read
  2258 ;; This function uses a non-reentrant model
  2259 ;;
  2260                           
  2261                           
  2262                           ;psect for function _i2c_read
  2263  0EE1                     _i2c_read:	
  2264                           
  2265                           ;i2c_unitec.c: 44: SSPIF=0;
  2266                           
  2267                           ;incstack = 0
  2268                           ; Regs used in _i2c_read: [wreg]
  2269  0EE1  1283               	bcf	3,5	;RP0=0, select bank0
  2270  0EE2  1303               	bcf	3,6	;RP1=0, select bank0
  2271  0EE3  118C               	bcf	12,3	;volatile
  2272                           
  2273                           ;i2c_unitec.c: 45: RCEN=1;
  2274  0EE4  1683               	bsf	3,5	;RP0=1, select bank1
  2275  0EE5  1303               	bcf	3,6	;RP1=0, select bank1
  2276  0EE6  1591               	bsf	17,3	;volatile
  2277  0EE7                     l834:	
  2278                           ;i2c_unitec.c: 46: while(!SSPIF);
  2279                           
  2280  0EE7  1283               	bcf	3,5	;RP0=0, select bank0
  2281  0EE8  1D8C               	btfss	12,3	;volatile
  2282  0EE9  2EE7               	goto	l834
  2283                           
  2284                           ;i2c_unitec.c: 47: return (SSPBUF);
  2285  0EEA  0813               	movf	19,w	;volatile
  2286  0EEB  0008               	return
  2287  0EEC                     __end_of_i2c_read:	
  2288                           
  2289                           	psect	text8
  2290  0ED6                     __ptext8:	
  2291 ;; *************** function _i2c_nak *****************
  2292 ;; Defined at:
  2293 ;;		line 50 in file "D:\WALEED\live_person\mutaz\Project\i2c_unitec.c"
  2294 ;; Parameters:    Size  Location     Type
  2295 ;;		None
  2296 ;; Auto vars:     Size  Location     Type
  2297 ;;		None
  2298 ;; Return value:  Size  Location     Type
  2299 ;;		None               void
  2300 ;; Registers used:
  2301 ;;		None
  2302 ;; Tracked objects:
  2303 ;;		On entry : 0/0
  2304 ;;		On exit  : 0/0
  2305 ;;		Unchanged: 0/0
  2306 ;; Data sizes:     COMMON   BANK0   BANK1   BANK3   BANK2
  2307 ;;      Params:         0       0       0       0       0
  2308 ;;      Locals:         0       0       0       0       0
  2309 ;;      Temps:          0       0       0       0       0
  2310 ;;      Totals:         0       0       0       0       0
  2311 ;;Total ram usage:        0 bytes
  2312 ;; Hardware stack levels used:    1
  2313 ;; This function calls:
  2314 ;;		Nothing
  2315 ;; This function is called by:
  2316 ;;		_rtc1307_read
  2317 ;; This function uses a non-reentrant model
  2318 ;;
  2319                           
  2320                           
  2321                           ;psect for function _i2c_nak
  2322  0ED6                     _i2c_nak:	
  2323                           
  2324                           ;i2c_unitec.c: 52: SSPIF=0;
  2325                           
  2326                           ;incstack = 0
  2327                           ; Regs used in _i2c_nak: []
  2328  0ED6  1283               	bcf	3,5	;RP0=0, select bank0
  2329  0ED7  1303               	bcf	3,6	;RP1=0, select bank0
  2330  0ED8  118C               	bcf	12,3	;volatile
  2331                           
  2332                           ;i2c_unitec.c: 53: ACKDT=1;
  2333  0ED9  1683               	bsf	3,5	;RP0=1, select bank1
  2334  0EDA  1303               	bcf	3,6	;RP1=0, select bank1
  2335  0EDB  1691               	bsf	17,5	;volatile
  2336                           
  2337                           ;i2c_unitec.c: 54: ACKEN=1;
  2338  0EDC  1611               	bsf	17,4	;volatile
  2339  0EDD                     l840:	
  2340                           ;i2c_unitec.c: 55: while(!SSPIF);
  2341                           
  2342  0EDD  1283               	bcf	3,5	;RP0=0, select bank0
  2343  0EDE  198C               	btfsc	12,3	;volatile
  2344  0EDF  0008               	return
  2345  0EE0  2EDD               	goto	l840
  2346  0EE1                     __end_of_i2c_nak:	
  2347                           
  2348                           	psect	text9
  2349  0F4B                     __ptext9:	
  2350 ;; *************** function ___wmul *****************
  2351 ;; Defined at:
  2352 ;;		line 15 in file "C:\Program Files (x86)\Microchip\xc8\v1.33\sources\common\Umul16.c"
  2353 ;; Parameters:    Size  Location     Type
  2354 ;;  multiplier      2    0[COMMON] unsigned int 
  2355 ;;  multiplicand    2    2[COMMON] unsigned int 
  2356 ;; Auto vars:     Size  Location     Type
  2357 ;;  product         2    4[COMMON] unsigned int 
  2358 ;; Return value:  Size  Location     Type
  2359 ;;                  2    0[COMMON] unsigned int 
  2360 ;; Registers used:
  2361 ;;		wreg, status,2, status,0
  2362 ;; Tracked objects:
  2363 ;;		On entry : 0/0
  2364 ;;		On exit  : 0/0
  2365 ;;		Unchanged: 0/0
  2366 ;; Data sizes:     COMMON   BANK0   BANK1   BANK3   BANK2
  2367 ;;      Params:         4       0       0       0       0
  2368 ;;      Locals:         2       0       0       0       0
  2369 ;;      Temps:          0       0       0       0       0
  2370 ;;      Totals:         6       0       0       0       0
  2371 ;;Total ram usage:        6 bytes
  2372 ;; Hardware stack levels used:    1
  2373 ;; This function calls:
  2374 ;;		Nothing
  2375 ;; This function is called by:
  2376 ;;		_main
  2377 ;;		_store_data
  2378 ;; This function uses a non-reentrant model
  2379 ;;
  2380                           
  2381                           
  2382                           ;psect for function ___wmul
  2383  0F4B                     ___wmul:	
  2384                           
  2385                           ;incstack = 0
  2386                           ; Regs used in ___wmul: [wreg+status,2+status,0]
  2387  0F4B  01F4               	clrf	___wmul@product
  2388  0F4C  01F5               	clrf	___wmul@product+1
  2389  0F4D                     l1975:	
  2390  0F4D  1C70               	btfss	___wmul@multiplier,0
  2391  0F4E  2F55               	goto	l954
  2392  0F4F  0872               	movf	___wmul@multiplicand,w
  2393  0F50  07F4               	addwf	___wmul@product,f
  2394  0F51  1803               	skipnc
  2395  0F52  0AF5               	incf	___wmul@product+1,f
  2396  0F53  0873               	movf	___wmul@multiplicand+1,w
  2397  0F54  07F5               	addwf	___wmul@product+1,f
  2398  0F55                     l954:	
  2399  0F55  3001               	movlw	1
  2400  0F56                     u1085:	
  2401  0F56  1003               	clrc
  2402  0F57  0DF2               	rlf	___wmul@multiplicand,f
  2403  0F58  0DF3               	rlf	___wmul@multiplicand+1,f
  2404  0F59  3EFF               	addlw	-1
  2405  0F5A  1D03               	skipz
  2406  0F5B  2F56               	goto	u1085
  2407  0F5C  3001               	movlw	1
  2408  0F5D                     u1095:	
  2409  0F5D  1003               	clrc
  2410  0F5E  0CF1               	rrf	___wmul@multiplier+1,f
  2411  0F5F  0CF0               	rrf	___wmul@multiplier,f
  2412  0F60  3EFF               	addlw	-1
  2413  0F61  1D03               	skipz
  2414  0F62  2F5D               	goto	u1095
  2415  0F63  0871               	movf	___wmul@multiplier+1,w
  2416  0F64  0470               	iorwf	___wmul@multiplier,w
  2417  0F65  1D03               	skipz
  2418  0F66  2F4D               	goto	l1975
  2419  0F67  0875               	movf	___wmul@product+1,w
  2420  0F68  01F1               	clrf	?___wmul+1
  2421  0F69  07F1               	addwf	?___wmul+1,f
  2422  0F6A  0874               	movf	___wmul@product,w
  2423  0F6B  01F0               	clrf	?___wmul
  2424  0F6C  07F0               	addwf	?___wmul,f
  2425  0F6D  0008               	return
  2426  0F6E                     __end_of___wmul:	
  2427                           
  2428                           	psect	text10
  2429  00FF                     __ptext10:	
  2430 ;; *************** function ___lwtoft *****************
  2431 ;; Defined at:
  2432 ;;		line 28 in file "C:\Program Files (x86)\Microchip\xc8\v1.33\sources\common\lwtoft.c"
  2433 ;; Parameters:    Size  Location     Type
  2434 ;;  c               2    8[COMMON] unsigned int 
  2435 ;; Auto vars:     Size  Location     Type
  2436 ;;		None
  2437 ;; Return value:  Size  Location     Type
  2438 ;;                  3    8[COMMON] float 
  2439 ;; Registers used:
  2440 ;;		wreg, status,2, status,0, pclath, cstack
  2441 ;; Tracked objects:
  2442 ;;		On entry : 0/0
  2443 ;;		On exit  : 0/0
  2444 ;;		Unchanged: 0/0
  2445 ;; Data sizes:     COMMON   BANK0   BANK1   BANK3   BANK2
  2446 ;;      Params:         3       0       0       0       0
  2447 ;;      Locals:         0       0       0       0       0
  2448 ;;      Temps:          1       0       0       0       0
  2449 ;;      Totals:         4       0       0       0       0
  2450 ;;Total ram usage:        4 bytes
  2451 ;; Hardware stack levels used:    1
  2452 ;; Hardware stack levels required when called:    1
  2453 ;; This function calls:
  2454 ;;		___ftpack
  2455 ;; This function is called by:
  2456 ;;		_store_data
  2457 ;; This function uses a non-reentrant model
  2458 ;;
  2459                           
  2460                           
  2461                           ;psect for function ___lwtoft
  2462  00FF                     ___lwtoft:	
  2463                           
  2464                           ;incstack = 0
  2465                           ; Regs used in ___lwtoft: [wreg+status,2+status,0+pclath+cstack]
  2466  00FF  0878               	movf	___lwtoft@c,w
  2467  0100  00F0               	movwf	___ftpack@arg
  2468  0101  0879               	movf	___lwtoft@c+1,w
  2469  0102  00F1               	movwf	___ftpack@arg+1
  2470  0103  01F2               	clrf	___ftpack@arg+2
  2471  0104  308E               	movlw	142
  2472  0105  00FB               	movwf	??___lwtoft
  2473  0106  087B               	movf	??___lwtoft,w
  2474  0107  00F3               	movwf	___ftpack@exp
  2475  0108  01F4               	clrf	___ftpack@sign
  2476  0109  120A  118A  2113   	fcall	___ftpack
  2477  010C  0870               	movf	?___ftpack,w
  2478  010D  00F8               	movwf	?___lwtoft
  2479  010E  0871               	movf	?___ftpack+1,w
  2480  010F  00F9               	movwf	?___lwtoft+1
  2481  0110  0872               	movf	?___ftpack+2,w
  2482  0111  00FA               	movwf	?___lwtoft+2
  2483  0112  0008               	return
  2484  0113                     __end_of___lwtoft:	
  2485                           
  2486                           	psect	text11
  2487  017B                     __ptext11:	
  2488 ;; *************** function ___fttol *****************
  2489 ;; Defined at:
  2490 ;;		line 44 in file "C:\Program Files (x86)\Microchip\xc8\v1.33\sources\common\fttol.c"
  2491 ;; Parameters:    Size  Location     Type
  2492 ;;  f1              3    0[COMMON] float 
  2493 ;; Auto vars:     Size  Location     Type
  2494 ;;  lval            4    9[COMMON] unsigned long 
  2495 ;;  exp1            1   13[COMMON] unsigned char 
  2496 ;;  sign1           1    8[COMMON] unsigned char 
  2497 ;; Return value:  Size  Location     Type
  2498 ;;                  4    0[COMMON] long 
  2499 ;; Registers used:
  2500 ;;		wreg, status,2, status,0
  2501 ;; Tracked objects:
  2502 ;;		On entry : 0/0
  2503 ;;		On exit  : 0/0
  2504 ;;		Unchanged: 0/0
  2505 ;; Data sizes:     COMMON   BANK0   BANK1   BANK3   BANK2
  2506 ;;      Params:         4       0       0       0       0
  2507 ;;      Locals:         6       0       0       0       0
  2508 ;;      Temps:          4       0       0       0       0
  2509 ;;      Totals:        14       0       0       0       0
  2510 ;;Total ram usage:       14 bytes
  2511 ;; Hardware stack levels used:    1
  2512 ;; This function calls:
  2513 ;;		Nothing
  2514 ;; This function is called by:
  2515 ;;		_store_data
  2516 ;; This function uses a non-reentrant model
  2517 ;;
  2518                           
  2519                           
  2520                           ;psect for function ___fttol
  2521  017B                     ___fttol:	
  2522                           
  2523                           ;incstack = 0
  2524                           ; Regs used in ___fttol: [wreg+status,2+status,0]
  2525  017B  0870               	movf	___fttol@f1,w
  2526  017C  00F4               	movwf	??___fttol
  2527  017D  0871               	movf	___fttol@f1+1,w
  2528  017E  00F5               	movwf	??___fttol+1
  2529  017F  0872               	movf	___fttol@f1+2,w
  2530  0180  00F6               	movwf	??___fttol+2
  2531  0181  1003               	clrc
  2532  0182  0D75               	rlf	??___fttol+1,w
  2533  0183  0D76               	rlf	??___fttol+2,w
  2534  0184  00F7               	movwf	??___fttol+3
  2535  0185  0877               	movf	??___fttol+3,w
  2536  0186  00FD               	movwf	___fttol@exp1
  2537  0187  08FD               	movf	___fttol@exp1,f
  2538  0188  1D03               	skipz
  2539  0189  2993               	goto	l2083
  2540  018A  3000               	movlw	0
  2541  018B  00F3               	movwf	?___fttol+3
  2542  018C  3000               	movlw	0
  2543  018D  00F2               	movwf	?___fttol+2
  2544  018E  3000               	movlw	0
  2545  018F  00F1               	movwf	?___fttol+1
  2546  0190  3000               	movlw	0
  2547  0191  00F0               	movwf	?___fttol
  2548  0192  0008               	return
  2549  0193                     l2083:	
  2550  0193  0870               	movf	___fttol@f1,w
  2551  0194  00F4               	movwf	??___fttol
  2552  0195  0871               	movf	___fttol@f1+1,w
  2553  0196  00F5               	movwf	??___fttol+1
  2554  0197  0872               	movf	___fttol@f1+2,w
  2555  0198  00F6               	movwf	??___fttol+2
  2556  0199  3017               	movlw	23
  2557  019A                     u1345:	
  2558  019A  1003               	clrc
  2559  019B  0CF6               	rrf	??___fttol+2,f
  2560  019C  0CF5               	rrf	??___fttol+1,f
  2561  019D  0CF4               	rrf	??___fttol,f
  2562  019E  3EFF               	addlw	-1
  2563  019F  1D03               	skipz
  2564  01A0  299A               	goto	u1345
  2565  01A1  0874               	movf	??___fttol,w
  2566  01A2  00F7               	movwf	??___fttol+3
  2567  01A3  0877               	movf	??___fttol+3,w
  2568  01A4  00F8               	movwf	___fttol@sign1
  2569  01A5  17F1               	bsf	___fttol@f1+1,7
  2570  01A6  30FF               	movlw	255
  2571  01A7  05F0               	andwf	___fttol@f1,f
  2572  01A8  30FF               	movlw	255
  2573  01A9  05F1               	andwf	___fttol@f1+1,f
  2574  01AA  3000               	movlw	0
  2575  01AB  05F2               	andwf	___fttol@f1+2,f
  2576  01AC  0870               	movf	___fttol@f1,w
  2577  01AD  00F9               	movwf	___fttol@lval
  2578  01AE  0871               	movf	___fttol@f1+1,w
  2579  01AF  00FA               	movwf	___fttol@lval+1
  2580  01B0  0872               	movf	___fttol@f1+2,w
  2581  01B1  00FB               	movwf	___fttol@lval+2
  2582  01B2  01FC               	clrf	___fttol@lval+3
  2583  01B3  308E               	movlw	142
  2584  01B4  02FD               	subwf	___fttol@exp1,f
  2585  01B5  1FFD               	btfss	___fttol@exp1,7
  2586  01B6  29D5               	goto	l2103
  2587  01B7  087D               	movf	___fttol@exp1,w
  2588  01B8  3A80               	xorlw	128
  2589  01B9  3E8F               	addlw	143
  2590  01BA  1803               	skipnc
  2591  01BB  29C5               	goto	l2101
  2592  01BC  3000               	movlw	0
  2593  01BD  00F3               	movwf	?___fttol+3
  2594  01BE  3000               	movlw	0
  2595  01BF  00F2               	movwf	?___fttol+2
  2596  01C0  3000               	movlw	0
  2597  01C1  00F1               	movwf	?___fttol+1
  2598  01C2  3000               	movlw	0
  2599  01C3  00F0               	movwf	?___fttol
  2600  01C4  0008               	return
  2601  01C5                     l2101:	
  2602  01C5  3001               	movlw	1
  2603  01C6                     u1375:	
  2604  01C6  1003               	clrc
  2605  01C7  0CFC               	rrf	___fttol@lval+3,f
  2606  01C8  0CFB               	rrf	___fttol@lval+2,f
  2607  01C9  0CFA               	rrf	___fttol@lval+1,f
  2608  01CA  0CF9               	rrf	___fttol@lval,f
  2609  01CB  3EFF               	addlw	-1
  2610  01CC  1D03               	skipz
  2611  01CD  29C6               	goto	u1375
  2612  01CE  3001               	movlw	1
  2613  01CF  00F4               	movwf	??___fttol
  2614  01D0  0874               	movf	??___fttol,w
  2615  01D1  07FD               	addwf	___fttol@exp1,f
  2616  01D2  1903               	btfsc	3,2
  2617  01D3  29F0               	goto	l2113
  2618  01D4  29C5               	goto	l2101
  2619  01D5                     l2103:	
  2620  01D5  3018               	movlw	24
  2621  01D6  027D               	subwf	___fttol@exp1,w
  2622  01D7  1C03               	skipc
  2623  01D8  29ED               	goto	l2111
  2624  01D9  3000               	movlw	0
  2625  01DA  00F3               	movwf	?___fttol+3
  2626  01DB  3000               	movlw	0
  2627  01DC  00F2               	movwf	?___fttol+2
  2628  01DD  3000               	movlw	0
  2629  01DE  00F1               	movwf	?___fttol+1
  2630  01DF  3000               	movlw	0
  2631  01E0  00F0               	movwf	?___fttol
  2632  01E1  0008               	return
  2633  01E2                     l2109:	
  2634  01E2  3001               	movlw	1
  2635  01E3  00F4               	movwf	??___fttol
  2636  01E4                     u1405:	
  2637  01E4  1003               	clrc
  2638  01E5  0DF9               	rlf	___fttol@lval,f
  2639  01E6  0DFA               	rlf	___fttol@lval+1,f
  2640  01E7  0DFB               	rlf	___fttol@lval+2,f
  2641  01E8  0DFC               	rlf	___fttol@lval+3,f
  2642  01E9  0BF4               	decfsz	??___fttol,f
  2643  01EA  29E4               	goto	u1405
  2644  01EB  3001               	movlw	1
  2645  01EC  02FD               	subwf	___fttol@exp1,f
  2646  01ED                     l2111:	
  2647  01ED  08FD               	movf	___fttol@exp1,f
  2648  01EE  1D03               	skipz
  2649  01EF  29E2               	goto	l2109
  2650  01F0                     l2113:	
  2651  01F0  0878               	movf	___fttol@sign1,w
  2652  01F1  1903               	btfsc	3,2
  2653  01F2  29FE               	goto	l2117
  2654  01F3  09F9               	comf	___fttol@lval,f
  2655  01F4  09FA               	comf	___fttol@lval+1,f
  2656  01F5  09FB               	comf	___fttol@lval+2,f
  2657  01F6  09FC               	comf	___fttol@lval+3,f
  2658  01F7  0AF9               	incf	___fttol@lval,f
  2659  01F8  1903               	skipnz
  2660  01F9  0AFA               	incf	___fttol@lval+1,f
  2661  01FA  1903               	skipnz
  2662  01FB  0AFB               	incf	___fttol@lval+2,f
  2663  01FC  1903               	skipnz
  2664  01FD  0AFC               	incf	___fttol@lval+3,f
  2665  01FE                     l2117:	
  2666  01FE  087C               	movf	___fttol@lval+3,w
  2667  01FF  00F3               	movwf	?___fttol+3
  2668  0200  087B               	movf	___fttol@lval+2,w
  2669  0201  00F2               	movwf	?___fttol+2
  2670  0202  087A               	movf	___fttol@lval+1,w
  2671  0203  00F1               	movwf	?___fttol+1
  2672  0204  0879               	movf	___fttol@lval,w
  2673  0205  00F0               	movwf	?___fttol
  2674  0206  0008               	return
  2675  0207                     __end_of___fttol:	
  2676                           
  2677                           	psect	text12
  2678  036C                     __ptext12:	
  2679 ;; *************** function ___ftmul *****************
  2680 ;; Defined at:
  2681 ;;		line 62 in file "C:\Program Files (x86)\Microchip\xc8\v1.33\sources\common\ftmul.c"
  2682 ;; Parameters:    Size  Location     Type
  2683 ;;  f1              3    0[BANK0 ] float 
  2684 ;;  f2              3    3[BANK0 ] float 
  2685 ;; Auto vars:     Size  Location     Type
  2686 ;;  f3_as_produc    3   11[BANK0 ] unsigned um
  2687 ;;  sign            1   15[BANK0 ] unsigned char 
  2688 ;;  cntr            1   14[BANK0 ] unsigned char 
  2689 ;;  exp             1   10[BANK0 ] unsigned char 
  2690 ;; Return value:  Size  Location     Type
  2691 ;;                  3    0[BANK0 ] float 
  2692 ;; Registers used:
  2693 ;;		wreg, status,2, status,0, pclath, cstack
  2694 ;; Tracked objects:
  2695 ;;		On entry : 0/0
  2696 ;;		On exit  : 0/0
  2697 ;;		Unchanged: 0/0
  2698 ;; Data sizes:     COMMON   BANK0   BANK1   BANK3   BANK2
  2699 ;;      Params:         0       6       0       0       0
  2700 ;;      Locals:         0       6       0       0       0
  2701 ;;      Temps:          0       4       0       0       0
  2702 ;;      Totals:         0      16       0       0       0
  2703 ;;Total ram usage:       16 bytes
  2704 ;; Hardware stack levels used:    1
  2705 ;; Hardware stack levels required when called:    1
  2706 ;; This function calls:
  2707 ;;		___ftpack
  2708 ;; This function is called by:
  2709 ;;		_store_data
  2710 ;; This function uses a non-reentrant model
  2711 ;;
  2712                           
  2713                           
  2714                           ;psect for function ___ftmul
  2715  036C                     ___ftmul:	
  2716                           
  2717                           ;incstack = 0
  2718                           ; Regs used in ___ftmul: [wreg+status,2+status,0+pclath+cstack]
  2719  036C  1283               	bcf	3,5	;RP0=0, select bank0
  2720  036D  1303               	bcf	3,6	;RP1=0, select bank0
  2721  036E  0853               	movf	___ftmul@f1,w
  2722  036F  00D9               	movwf	??___ftmul
  2723  0370  0854               	movf	___ftmul@f1+1,w
  2724  0371  00DA               	movwf	??___ftmul+1
  2725  0372  0855               	movf	___ftmul@f1+2,w
  2726  0373  00DB               	movwf	??___ftmul+2
  2727  0374  1003               	clrc
  2728  0375  0D5A               	rlf	??___ftmul+1,w
  2729  0376  0D5B               	rlf	??___ftmul+2,w
  2730  0377  00DC               	movwf	??___ftmul+3
  2731  0378  085C               	movf	??___ftmul+3,w
  2732  0379  00DD               	movwf	___ftmul@exp
  2733  037A  08DD               	movf	___ftmul@exp,f
  2734  037B  1D03               	skipz
  2735  037C  2B84               	goto	l2033
  2736  037D  3000               	movlw	0
  2737  037E  00D3               	movwf	?___ftmul
  2738  037F  3000               	movlw	0
  2739  0380  00D4               	movwf	?___ftmul+1
  2740  0381  3000               	movlw	0
  2741  0382  00D5               	movwf	?___ftmul+2
  2742  0383  0008               	return
  2743  0384                     l2033:	
  2744  0384  0856               	movf	___ftmul@f2,w
  2745  0385  00D9               	movwf	??___ftmul
  2746  0386  0857               	movf	___ftmul@f2+1,w
  2747  0387  00DA               	movwf	??___ftmul+1
  2748  0388  0858               	movf	___ftmul@f2+2,w
  2749  0389  00DB               	movwf	??___ftmul+2
  2750  038A  1003               	clrc
  2751  038B  0D5A               	rlf	??___ftmul+1,w
  2752  038C  0D5B               	rlf	??___ftmul+2,w
  2753  038D  00DC               	movwf	??___ftmul+3
  2754  038E  085C               	movf	??___ftmul+3,w
  2755  038F  00E2               	movwf	___ftmul@sign
  2756  0390  08E2               	movf	___ftmul@sign,f
  2757  0391  1D03               	skipz
  2758  0392  2B9A               	goto	l2039
  2759  0393  3000               	movlw	0
  2760  0394  00D3               	movwf	?___ftmul
  2761  0395  3000               	movlw	0
  2762  0396  00D4               	movwf	?___ftmul+1
  2763  0397  3000               	movlw	0
  2764  0398  00D5               	movwf	?___ftmul+2
  2765  0399  0008               	return
  2766  039A                     l2039:	
  2767  039A  0862               	movf	___ftmul@sign,w
  2768  039B  3E7B               	addlw	123
  2769  039C  00D9               	movwf	??___ftmul
  2770  039D  0859               	movf	??___ftmul,w
  2771  039E  07DD               	addwf	___ftmul@exp,f
  2772  039F  0853               	movf	___ftmul@f1,w
  2773  03A0  00D9               	movwf	??___ftmul
  2774  03A1  0854               	movf	___ftmul@f1+1,w
  2775  03A2  00DA               	movwf	??___ftmul+1
  2776  03A3  0855               	movf	___ftmul@f1+2,w
  2777  03A4  00DB               	movwf	??___ftmul+2
  2778  03A5  3010               	movlw	16
  2779  03A6                     u1215:	
  2780  03A6  1003               	clrc
  2781  03A7  0CDB               	rrf	??___ftmul+2,f
  2782  03A8  0CDA               	rrf	??___ftmul+1,f
  2783  03A9  0CD9               	rrf	??___ftmul,f
  2784  03AA  3EFF               	addlw	-1
  2785  03AB  1D03               	skipz
  2786  03AC  2BA6               	goto	u1215
  2787  03AD  0859               	movf	??___ftmul,w
  2788  03AE  00DC               	movwf	??___ftmul+3
  2789  03AF  085C               	movf	??___ftmul+3,w
  2790  03B0  00E2               	movwf	___ftmul@sign
  2791  03B1  0856               	movf	___ftmul@f2,w
  2792  03B2  00D9               	movwf	??___ftmul
  2793  03B3  0857               	movf	___ftmul@f2+1,w
  2794  03B4  00DA               	movwf	??___ftmul+1
  2795  03B5  0858               	movf	___ftmul@f2+2,w
  2796  03B6  00DB               	movwf	??___ftmul+2
  2797  03B7  3010               	movlw	16
  2798  03B8                     u1225:	
  2799  03B8  1003               	clrc
  2800  03B9  0CDB               	rrf	??___ftmul+2,f
  2801  03BA  0CDA               	rrf	??___ftmul+1,f
  2802  03BB  0CD9               	rrf	??___ftmul,f
  2803  03BC  3EFF               	addlw	-1
  2804  03BD  1D03               	skipz
  2805  03BE  2BB8               	goto	u1225
  2806  03BF  0859               	movf	??___ftmul,w
  2807  03C0  00DC               	movwf	??___ftmul+3
  2808  03C1  085C               	movf	??___ftmul+3,w
  2809  03C2  06E2               	xorwf	___ftmul@sign,f
  2810  03C3  3080               	movlw	128
  2811  03C4  00D9               	movwf	??___ftmul
  2812  03C5  0859               	movf	??___ftmul,w
  2813  03C6  05E2               	andwf	___ftmul@sign,f
  2814  03C7  17D4               	bsf	___ftmul@f1+1,7
  2815  03C8  17D7               	bsf	___ftmul@f2+1,7
  2816  03C9  30FF               	movlw	255
  2817  03CA  05D6               	andwf	___ftmul@f2,f
  2818  03CB  30FF               	movlw	255
  2819  03CC  05D7               	andwf	___ftmul@f2+1,f
  2820  03CD  3000               	movlw	0
  2821  03CE  05D8               	andwf	___ftmul@f2+2,f
  2822  03CF  3000               	movlw	0
  2823  03D0  00DE               	movwf	___ftmul@f3_as_product
  2824  03D1  3000               	movlw	0
  2825  03D2  00DF               	movwf	___ftmul@f3_as_product+1
  2826  03D3  3000               	movlw	0
  2827  03D4  00E0               	movwf	___ftmul@f3_as_product+2
  2828  03D5  3007               	movlw	7
  2829  03D6  00D9               	movwf	??___ftmul
  2830  03D7  0859               	movf	??___ftmul,w
  2831  03D8  00E1               	movwf	___ftmul@cntr
  2832  03D9                     l2051:	
  2833  03D9  1C53               	btfss	___ftmul@f1,0
  2834  03DA  2BE9               	goto	l2055
  2835  03DB  0856               	movf	___ftmul@f2,w
  2836  03DC  07DE               	addwf	___ftmul@f3_as_product,f
  2837  03DD  0857               	movf	___ftmul@f2+1,w
  2838  03DE  1103               	clrz
  2839  03DF  1803               	skipnc
  2840  03E0  0A57               	incf	___ftmul@f2+1,w
  2841  03E1  1D03               	btfss	3,2
  2842  03E2  07DF               	addwf	___ftmul@f3_as_product+1,f
  2843  03E3  0858               	movf	___ftmul@f2+2,w
  2844  03E4  1103               	clrz
  2845  03E5  1803               	skipnc
  2846  03E6  0A58               	incf	___ftmul@f2+2,w
  2847  03E7  1D03               	btfss	3,2
  2848  03E8  07E0               	addwf	___ftmul@f3_as_product+2,f
  2849  03E9                     l2055:	
  2850  03E9  3001               	movlw	1
  2851  03EA                     u1255:	
  2852  03EA  1003               	clrc
  2853  03EB  0CD5               	rrf	___ftmul@f1+2,f
  2854  03EC  0CD4               	rrf	___ftmul@f1+1,f
  2855  03ED  0CD3               	rrf	___ftmul@f1,f
  2856  03EE  3EFF               	addlw	-1
  2857  03EF  1D03               	skipz
  2858  03F0  2BEA               	goto	u1255
  2859  03F1  3001               	movlw	1
  2860  03F2                     u1265:	
  2861  03F2  1003               	clrc
  2862  03F3  0DD6               	rlf	___ftmul@f2,f
  2863  03F4  0DD7               	rlf	___ftmul@f2+1,f
  2864  03F5  0DD8               	rlf	___ftmul@f2+2,f
  2865  03F6  3EFF               	addlw	-1
  2866  03F7  1D03               	skipz
  2867  03F8  2BF2               	goto	u1265
  2868  03F9  3001               	movlw	1
  2869  03FA  02E1               	subwf	___ftmul@cntr,f
  2870  03FB  1D03               	btfss	3,2
  2871  03FC  2BD9               	goto	l2051
  2872  03FD  3009               	movlw	9
  2873  03FE  00D9               	movwf	??___ftmul
  2874  03FF  0859               	movf	??___ftmul,w
  2875  0400  00E1               	movwf	___ftmul@cntr
  2876  0401                     l2063:	
  2877  0401  1C53               	btfss	___ftmul@f1,0
  2878  0402  2C11               	goto	l2067
  2879  0403  0856               	movf	___ftmul@f2,w
  2880  0404  07DE               	addwf	___ftmul@f3_as_product,f
  2881  0405  0857               	movf	___ftmul@f2+1,w
  2882  0406  1103               	clrz
  2883  0407  1803               	skipnc
  2884  0408  0A57               	incf	___ftmul@f2+1,w
  2885  0409  1D03               	btfss	3,2
  2886  040A  07DF               	addwf	___ftmul@f3_as_product+1,f
  2887  040B  0858               	movf	___ftmul@f2+2,w
  2888  040C  1103               	clrz
  2889  040D  1803               	skipnc
  2890  040E  0A58               	incf	___ftmul@f2+2,w
  2891  040F  1D03               	btfss	3,2
  2892  0410  07E0               	addwf	___ftmul@f3_as_product+2,f
  2893  0411                     l2067:	
  2894  0411  3001               	movlw	1
  2895  0412                     u1305:	
  2896  0412  1003               	clrc
  2897  0413  0CD5               	rrf	___ftmul@f1+2,f
  2898  0414  0CD4               	rrf	___ftmul@f1+1,f
  2899  0415  0CD3               	rrf	___ftmul@f1,f
  2900  0416  3EFF               	addlw	-1
  2901  0417  1D03               	skipz
  2902  0418  2C12               	goto	u1305
  2903  0419  3001               	movlw	1
  2904  041A                     u1315:	
  2905  041A  1003               	clrc
  2906  041B  0CE0               	rrf	___ftmul@f3_as_product+2,f
  2907  041C  0CDF               	rrf	___ftmul@f3_as_product+1,f
  2908  041D  0CDE               	rrf	___ftmul@f3_as_product,f
  2909  041E  3EFF               	addlw	-1
  2910  041F  1D03               	skipz
  2911  0420  2C1A               	goto	u1315
  2912  0421  3001               	movlw	1
  2913  0422  02E1               	subwf	___ftmul@cntr,f
  2914  0423  1D03               	btfss	3,2
  2915  0424  2C01               	goto	l2063
  2916  0425  085E               	movf	___ftmul@f3_as_product,w
  2917  0426  00F0               	movwf	___ftpack@arg
  2918  0427  085F               	movf	___ftmul@f3_as_product+1,w
  2919  0428  00F1               	movwf	___ftpack@arg+1
  2920  0429  0860               	movf	___ftmul@f3_as_product+2,w
  2921  042A  00F2               	movwf	___ftpack@arg+2
  2922  042B  085D               	movf	___ftmul@exp,w
  2923  042C  00D9               	movwf	??___ftmul
  2924  042D  0859               	movf	??___ftmul,w
  2925  042E  00F3               	movwf	___ftpack@exp
  2926  042F  0862               	movf	___ftmul@sign,w
  2927  0430  00DA               	movwf	??___ftmul+1
  2928  0431  085A               	movf	??___ftmul+1,w
  2929  0432  00F4               	movwf	___ftpack@sign
  2930  0433  120A  118A  2113   	fcall	___ftpack
  2931  0436  0870               	movf	?___ftpack,w
  2932  0437  1283               	bcf	3,5	;RP0=0, select bank0
  2933  0438  1303               	bcf	3,6	;RP1=0, select bank0
  2934  0439  00D3               	movwf	?___ftmul
  2935  043A  0871               	movf	?___ftpack+1,w
  2936  043B  00D4               	movwf	?___ftmul+1
  2937  043C  0872               	movf	?___ftpack+2,w
  2938  043D  00D5               	movwf	?___ftmul+2
  2939  043E  0008               	return
  2940  043F                     __end_of___ftmul:	
  2941                           
  2942                           	psect	text13
  2943  02B6                     __ptext13:	
  2944 ;; *************** function ___ftdiv *****************
  2945 ;; Defined at:
  2946 ;;		line 49 in file "C:\Program Files (x86)\Microchip\xc8\v1.33\sources\pic\ftdiv.c"
  2947 ;; Parameters:    Size  Location     Type
  2948 ;;  f2              3    8[COMMON] float 
  2949 ;;  f1              3   11[COMMON] float 
  2950 ;; Auto vars:     Size  Location     Type
  2951 ;;  f3              3    5[BANK0 ] float 
  2952 ;;  sign            1    9[BANK0 ] unsigned char 
  2953 ;;  exp             1    8[BANK0 ] unsigned char 
  2954 ;;  cntr            1    4[BANK0 ] unsigned char 
  2955 ;; Return value:  Size  Location     Type
  2956 ;;                  3    8[COMMON] float 
  2957 ;; Registers used:
  2958 ;;		wreg, status,2, status,0, pclath, cstack
  2959 ;; Tracked objects:
  2960 ;;		On entry : 0/0
  2961 ;;		On exit  : 0/0
  2962 ;;		Unchanged: 0/0
  2963 ;; Data sizes:     COMMON   BANK0   BANK1   BANK3   BANK2
  2964 ;;      Params:         6       0       0       0       0
  2965 ;;      Locals:         0       6       0       0       0
  2966 ;;      Temps:          0       4       0       0       0
  2967 ;;      Totals:         6      10       0       0       0
  2968 ;;Total ram usage:       16 bytes
  2969 ;; Hardware stack levels used:    1
  2970 ;; Hardware stack levels required when called:    1
  2971 ;; This function calls:
  2972 ;;		___ftpack
  2973 ;; This function is called by:
  2974 ;;		_store_data
  2975 ;; This function uses a non-reentrant model
  2976 ;;
  2977                           
  2978                           
  2979                           ;psect for function ___ftdiv
  2980  02B6                     ___ftdiv:	
  2981                           
  2982                           ;incstack = 0
  2983                           ; Regs used in ___ftdiv: [wreg+status,2+status,0+pclath+cstack]
  2984  02B6  087B               	movf	___ftdiv@f1,w
  2985  02B7  1283               	bcf	3,5	;RP0=0, select bank0
  2986  02B8  1303               	bcf	3,6	;RP1=0, select bank0
  2987  02B9  00D3               	movwf	??___ftdiv
  2988  02BA  087C               	movf	___ftdiv@f1+1,w
  2989  02BB  00D4               	movwf	??___ftdiv+1
  2990  02BC  087D               	movf	___ftdiv@f1+2,w
  2991  02BD  00D5               	movwf	??___ftdiv+2
  2992  02BE  1003               	clrc
  2993  02BF  0D54               	rlf	??___ftdiv+1,w
  2994  02C0  0D55               	rlf	??___ftdiv+2,w
  2995  02C1  00D6               	movwf	??___ftdiv+3
  2996  02C2  0856               	movf	??___ftdiv+3,w
  2997  02C3  00DB               	movwf	___ftdiv@exp
  2998  02C4  08DB               	movf	___ftdiv@exp,f
  2999  02C5  1D03               	skipz
  3000  02C6  2ACE               	goto	l1991
  3001  02C7  3000               	movlw	0
  3002  02C8  00F8               	movwf	?___ftdiv
  3003  02C9  3000               	movlw	0
  3004  02CA  00F9               	movwf	?___ftdiv+1
  3005  02CB  3000               	movlw	0
  3006  02CC  00FA               	movwf	?___ftdiv+2
  3007  02CD  0008               	return
  3008  02CE                     l1991:	
  3009  02CE  0878               	movf	___ftdiv@f2,w
  3010  02CF  00D3               	movwf	??___ftdiv
  3011  02D0  0879               	movf	___ftdiv@f2+1,w
  3012  02D1  00D4               	movwf	??___ftdiv+1
  3013  02D2  087A               	movf	___ftdiv@f2+2,w
  3014  02D3  00D5               	movwf	??___ftdiv+2
  3015  02D4  1003               	clrc
  3016  02D5  0D54               	rlf	??___ftdiv+1,w
  3017  02D6  0D55               	rlf	??___ftdiv+2,w
  3018  02D7  00D6               	movwf	??___ftdiv+3
  3019  02D8  0856               	movf	??___ftdiv+3,w
  3020  02D9  00DC               	movwf	___ftdiv@sign
  3021  02DA  08DC               	movf	___ftdiv@sign,f
  3022  02DB  1D03               	skipz
  3023  02DC  2AE4               	goto	l1997
  3024  02DD  3000               	movlw	0
  3025  02DE  00F8               	movwf	?___ftdiv
  3026  02DF  3000               	movlw	0
  3027  02E0  00F9               	movwf	?___ftdiv+1
  3028  02E1  3000               	movlw	0
  3029  02E2  00FA               	movwf	?___ftdiv+2
  3030  02E3  0008               	return
  3031  02E4                     l1997:	
  3032  02E4  3000               	movlw	0
  3033  02E5  00D8               	movwf	___ftdiv@f3
  3034  02E6  3000               	movlw	0
  3035  02E7  00D9               	movwf	___ftdiv@f3+1
  3036  02E8  3000               	movlw	0
  3037  02E9  00DA               	movwf	___ftdiv@f3+2
  3038  02EA  3089               	movlw	137
  3039  02EB  075C               	addwf	___ftdiv@sign,w
  3040  02EC  00D3               	movwf	??___ftdiv
  3041  02ED  0853               	movf	??___ftdiv,w
  3042  02EE  02DB               	subwf	___ftdiv@exp,f
  3043  02EF  087B               	movf	___ftdiv@f1,w
  3044  02F0  00D3               	movwf	??___ftdiv
  3045  02F1  087C               	movf	___ftdiv@f1+1,w
  3046  02F2  00D4               	movwf	??___ftdiv+1
  3047  02F3  087D               	movf	___ftdiv@f1+2,w
  3048  02F4  00D5               	movwf	??___ftdiv+2
  3049  02F5  3010               	movlw	16
  3050  02F6                     u1135:	
  3051  02F6  1003               	clrc
  3052  02F7  0CD5               	rrf	??___ftdiv+2,f
  3053  02F8  0CD4               	rrf	??___ftdiv+1,f
  3054  02F9  0CD3               	rrf	??___ftdiv,f
  3055  02FA  3EFF               	addlw	-1
  3056  02FB  1D03               	skipz
  3057  02FC  2AF6               	goto	u1135
  3058  02FD  0853               	movf	??___ftdiv,w
  3059  02FE  00D6               	movwf	??___ftdiv+3
  3060  02FF  0856               	movf	??___ftdiv+3,w
  3061  0300  00DC               	movwf	___ftdiv@sign
  3062  0301  0878               	movf	___ftdiv@f2,w
  3063  0302  00D3               	movwf	??___ftdiv
  3064  0303  0879               	movf	___ftdiv@f2+1,w
  3065  0304  00D4               	movwf	??___ftdiv+1
  3066  0305  087A               	movf	___ftdiv@f2+2,w
  3067  0306  00D5               	movwf	??___ftdiv+2
  3068  0307  3010               	movlw	16
  3069  0308                     u1145:	
  3070  0308  1003               	clrc
  3071  0309  0CD5               	rrf	??___ftdiv+2,f
  3072  030A  0CD4               	rrf	??___ftdiv+1,f
  3073  030B  0CD3               	rrf	??___ftdiv,f
  3074  030C  3EFF               	addlw	-1
  3075  030D  1D03               	skipz
  3076  030E  2B08               	goto	u1145
  3077  030F  0853               	movf	??___ftdiv,w
  3078  0310  00D6               	movwf	??___ftdiv+3
  3079  0311  0856               	movf	??___ftdiv+3,w
  3080  0312  06DC               	xorwf	___ftdiv@sign,f
  3081  0313  3080               	movlw	128
  3082  0314  00D3               	movwf	??___ftdiv
  3083  0315  0853               	movf	??___ftdiv,w
  3084  0316  05DC               	andwf	___ftdiv@sign,f
  3085  0317  17FC               	bsf	___ftdiv@f1+1,7
  3086  0318  30FF               	movlw	255
  3087  0319  05FB               	andwf	___ftdiv@f1,f
  3088  031A  30FF               	movlw	255
  3089  031B  05FC               	andwf	___ftdiv@f1+1,f
  3090  031C  3000               	movlw	0
  3091  031D  05FD               	andwf	___ftdiv@f1+2,f
  3092  031E  17F9               	bsf	___ftdiv@f2+1,7
  3093  031F  30FF               	movlw	255
  3094  0320  05F8               	andwf	___ftdiv@f2,f
  3095  0321  30FF               	movlw	255
  3096  0322  05F9               	andwf	___ftdiv@f2+1,f
  3097  0323  3000               	movlw	0
  3098  0324  05FA               	andwf	___ftdiv@f2+2,f
  3099  0325  3018               	movlw	24
  3100  0326  00D3               	movwf	??___ftdiv
  3101  0327  0853               	movf	??___ftdiv,w
  3102  0328  00D7               	movwf	___ftdiv@cntr
  3103  0329                     l2011:	
  3104  0329  3001               	movlw	1
  3105  032A                     u1155:	
  3106  032A  1003               	clrc
  3107  032B  0DD8               	rlf	___ftdiv@f3,f
  3108  032C  0DD9               	rlf	___ftdiv@f3+1,f
  3109  032D  0DDA               	rlf	___ftdiv@f3+2,f
  3110  032E  3EFF               	addlw	-1
  3111  032F  1D03               	skipz
  3112  0330  2B2A               	goto	u1155
  3113  0331  087A               	movf	___ftdiv@f2+2,w
  3114  0332  027D               	subwf	___ftdiv@f1+2,w
  3115  0333  1D03               	skipz
  3116  0334  2B3B               	goto	u1165
  3117  0335  0879               	movf	___ftdiv@f2+1,w
  3118  0336  027C               	subwf	___ftdiv@f1+1,w
  3119  0337  1D03               	skipz
  3120  0338  2B3B               	goto	u1165
  3121  0339  0878               	movf	___ftdiv@f2,w
  3122  033A  027B               	subwf	___ftdiv@f1,w
  3123  033B                     u1165:	
  3124  033B  1C03               	skipc
  3125  033C  2B48               	goto	l2019
  3126  033D  0878               	movf	___ftdiv@f2,w
  3127  033E  02FB               	subwf	___ftdiv@f1,f
  3128  033F  0879               	movf	___ftdiv@f2+1,w
  3129  0340  1C03               	skipc
  3130  0341  0F79               	incfsz	___ftdiv@f2+1,w
  3131  0342  02FC               	subwf	___ftdiv@f1+1,f
  3132  0343  087A               	movf	___ftdiv@f2+2,w
  3133  0344  1C03               	skipc
  3134  0345  0A7A               	incf	___ftdiv@f2+2,w
  3135  0346  02FD               	subwf	___ftdiv@f1+2,f
  3136  0347  1458               	bsf	___ftdiv@f3,0
  3137  0348                     l2019:	
  3138  0348  3001               	movlw	1
  3139  0349                     u1175:	
  3140  0349  1003               	clrc
  3141  034A  0DFB               	rlf	___ftdiv@f1,f
  3142  034B  0DFC               	rlf	___ftdiv@f1+1,f
  3143  034C  0DFD               	rlf	___ftdiv@f1+2,f
  3144  034D  3EFF               	addlw	-1
  3145  034E  1D03               	skipz
  3146  034F  2B49               	goto	u1175
  3147  0350  3001               	movlw	1
  3148  0351  02D7               	subwf	___ftdiv@cntr,f
  3149  0352  1D03               	btfss	3,2
  3150  0353  2B29               	goto	l2011
  3151  0354  0858               	movf	___ftdiv@f3,w
  3152  0355  00F0               	movwf	___ftpack@arg
  3153  0356  0859               	movf	___ftdiv@f3+1,w
  3154  0357  00F1               	movwf	___ftpack@arg+1
  3155  0358  085A               	movf	___ftdiv@f3+2,w
  3156  0359  00F2               	movwf	___ftpack@arg+2
  3157  035A  085B               	movf	___ftdiv@exp,w
  3158  035B  00D3               	movwf	??___ftdiv
  3159  035C  0853               	movf	??___ftdiv,w
  3160  035D  00F3               	movwf	___ftpack@exp
  3161  035E  085C               	movf	___ftdiv@sign,w
  3162  035F  00D4               	movwf	??___ftdiv+1
  3163  0360  0854               	movf	??___ftdiv+1,w
  3164  0361  00F4               	movwf	___ftpack@sign
  3165  0362  120A  118A  2113   	fcall	___ftpack
  3166  0365  0870               	movf	?___ftpack,w
  3167  0366  00F8               	movwf	?___ftdiv
  3168  0367  0871               	movf	?___ftpack+1,w
  3169  0368  00F9               	movwf	?___ftdiv+1
  3170  0369  0872               	movf	?___ftpack+2,w
  3171  036A  00FA               	movwf	?___ftdiv+2
  3172  036B  0008               	return
  3173  036C                     __end_of___ftdiv:	
  3174                           
  3175                           	psect	text14
  3176  0113                     __ptext14:	
  3177 ;; *************** function ___ftpack *****************
  3178 ;; Defined at:
  3179 ;;		line 62 in file "C:\Program Files (x86)\Microchip\xc8\v1.33\sources\common\float.c"
  3180 ;; Parameters:    Size  Location     Type
  3181 ;;  arg             3    0[COMMON] unsigned um
  3182 ;;  exp             1    3[COMMON] unsigned char 
  3183 ;;  sign            1    4[COMMON] unsigned char 
  3184 ;; Auto vars:     Size  Location     Type
  3185 ;;		None
  3186 ;; Return value:  Size  Location     Type
  3187 ;;                  3    0[COMMON] float 
  3188 ;; Registers used:
  3189 ;;		wreg, status,2, status,0
  3190 ;; Tracked objects:
  3191 ;;		On entry : 0/0
  3192 ;;		On exit  : 0/0
  3193 ;;		Unchanged: 0/0
  3194 ;; Data sizes:     COMMON   BANK0   BANK1   BANK3   BANK2
  3195 ;;      Params:         5       0       0       0       0
  3196 ;;      Locals:         0       0       0       0       0
  3197 ;;      Temps:          3       0       0       0       0
  3198 ;;      Totals:         8       0       0       0       0
  3199 ;;Total ram usage:        8 bytes
  3200 ;; Hardware stack levels used:    1
  3201 ;; This function calls:
  3202 ;;		Nothing
  3203 ;; This function is called by:
  3204 ;;		___ftdiv
  3205 ;;		___ftmul
  3206 ;;		___lwtoft
  3207 ;; This function uses a non-reentrant model
  3208 ;;
  3209                           
  3210                           
  3211                           ;psect for function ___ftpack
  3212  0113                     ___ftpack:	
  3213                           
  3214                           ;incstack = 0
  3215                           ; Regs used in ___ftpack: [wreg+status,2+status,0]
  3216  0113  0873               	movf	___ftpack@exp,w
  3217  0114  1903               	btfsc	3,2
  3218  0115  291B               	goto	l1913
  3219  0116  0872               	movf	___ftpack@arg+2,w
  3220  0117  0471               	iorwf	___ftpack@arg+1,w
  3221  0118  0470               	iorwf	___ftpack@arg,w
  3222  0119  1D03               	skipz
  3223  011A  292E               	goto	l1919
  3224  011B                     l1913:	
  3225  011B  3000               	movlw	0
  3226  011C  00F0               	movwf	?___ftpack
  3227  011D  3000               	movlw	0
  3228  011E  00F1               	movwf	?___ftpack+1
  3229  011F  3000               	movlw	0
  3230  0120  00F2               	movwf	?___ftpack+2
  3231  0121  0008               	return
  3232  0122                     l1917:	
  3233  0122  3001               	movlw	1
  3234  0123  00F5               	movwf	??___ftpack
  3235  0124  0875               	movf	??___ftpack,w
  3236  0125  07F3               	addwf	___ftpack@exp,f
  3237  0126  3001               	movlw	1
  3238  0127                     u965:	
  3239  0127  1003               	clrc
  3240  0128  0CF2               	rrf	___ftpack@arg+2,f
  3241  0129  0CF1               	rrf	___ftpack@arg+1,f
  3242  012A  0CF0               	rrf	___ftpack@arg,f
  3243  012B  3EFF               	addlw	-1
  3244  012C  1D03               	skipz
  3245  012D  2927               	goto	u965
  3246  012E                     l1919:	
  3247  012E  30FE               	movlw	254
  3248  012F  0572               	andwf	___ftpack@arg+2,w
  3249  0130  1903               	btfsc	3,2
  3250  0131  2949               	goto	l1115
  3251  0132  2922               	goto	l1917
  3252  0133                     l1921:	
  3253  0133  3001               	movlw	1
  3254  0134  00F5               	movwf	??___ftpack
  3255  0135  0875               	movf	??___ftpack,w
  3256  0136  07F3               	addwf	___ftpack@exp,f
  3257  0137  3001               	movlw	1
  3258  0138  07F0               	addwf	___ftpack@arg,f
  3259  0139  3000               	movlw	0
  3260  013A  1803               	skipnc
  3261  013B  3001               	movlw	1
  3262  013C  07F1               	addwf	___ftpack@arg+1,f
  3263  013D  3000               	movlw	0
  3264  013E  1803               	skipnc
  3265  013F  3001               	movlw	1
  3266  0140  07F2               	addwf	___ftpack@arg+2,f
  3267  0141  3001               	movlw	1
  3268  0142                     u985:	
  3269  0142  1003               	clrc
  3270  0143  0CF2               	rrf	___ftpack@arg+2,f
  3271  0144  0CF1               	rrf	___ftpack@arg+1,f
  3272  0145  0CF0               	rrf	___ftpack@arg,f
  3273  0146  3EFF               	addlw	-1
  3274  0147  1D03               	skipz
  3275  0148  2942               	goto	u985
  3276  0149                     l1115:	
  3277  0149  30FF               	movlw	255
  3278  014A  0572               	andwf	___ftpack@arg+2,w
  3279  014B  1903               	btfsc	3,2
  3280  014C  2958               	goto	l1929
  3281  014D  2933               	goto	l1921
  3282  014E                     l1927:	
  3283  014E  3001               	movlw	1
  3284  014F  02F3               	subwf	___ftpack@exp,f
  3285  0150  3001               	movlw	1
  3286  0151                     u1005:	
  3287  0151  1003               	clrc
  3288  0152  0DF0               	rlf	___ftpack@arg,f
  3289  0153  0DF1               	rlf	___ftpack@arg+1,f
  3290  0154  0DF2               	rlf	___ftpack@arg+2,f
  3291  0155  3EFF               	addlw	-1
  3292  0156  1D03               	skipz
  3293  0157  2951               	goto	u1005
  3294  0158                     l1929:	
  3295  0158  1FF1               	btfss	___ftpack@arg+1,7
  3296  0159  294E               	goto	l1927
  3297  015A  1873               	btfsc	___ftpack@exp,0
  3298  015B  2962               	goto	l1121
  3299  015C  30FF               	movlw	255
  3300  015D  05F0               	andwf	___ftpack@arg,f
  3301  015E  307F               	movlw	127
  3302  015F  05F1               	andwf	___ftpack@arg+1,f
  3303  0160  30FF               	movlw	255
  3304  0161  05F2               	andwf	___ftpack@arg+2,f
  3305  0162                     l1121:	
  3306  0162  1003               	clrc
  3307  0163  0CF3               	rrf	___ftpack@exp,f
  3308  0164  0873               	movf	___ftpack@exp,w
  3309  0165  00F5               	movwf	??___ftpack
  3310  0166  01F6               	clrf	??___ftpack+1
  3311  0167  01F7               	clrf	??___ftpack+2
  3312  0168  3010               	movlw	16
  3313  0169                     u1035:	
  3314  0169  1003               	clrc
  3315  016A  0DF5               	rlf	??___ftpack,f
  3316  016B  0DF6               	rlf	??___ftpack+1,f
  3317  016C  0DF7               	rlf	??___ftpack+2,f
  3318  016D  3EFF               	addlw	-1
  3319  016E  1D03               	skipz
  3320  016F  2969               	goto	u1035
  3321  0170  0875               	movf	??___ftpack,w
  3322  0171  04F0               	iorwf	___ftpack@arg,f
  3323  0172  0876               	movf	??___ftpack+1,w
  3324  0173  04F1               	iorwf	___ftpack@arg+1,f
  3325  0174  0877               	movf	??___ftpack+2,w
  3326  0175  04F2               	iorwf	___ftpack@arg+2,f
  3327  0176  0874               	movf	___ftpack@sign,w
  3328  0177  1903               	btfsc	3,2
  3329  0178  0008               	return
  3330  0179  17F2               	bsf	___ftpack@arg+2,7
  3331  017A  0008               	return
  3332  017B                     __end_of___ftpack:	
  3333                           
  3334                           	psect	text15
  3335  0F6E                     __ptext15:	
  3336 ;; *************** function _BCD2Dec *****************
  3337 ;; Defined at:
  3338 ;;		line 31 in file "D:\WALEED\live_person\mutaz\Project\i2c_rtc.c"
  3339 ;; Parameters:    Size  Location     Type
  3340 ;;  bcd             1    wreg     unsigned char 
  3341 ;; Auto vars:     Size  Location     Type
  3342 ;;  bcd             1    8[COMMON] unsigned char 
  3343 ;;  ten             1    9[COMMON] unsigned char 
  3344 ;;  temp            1    7[COMMON] unsigned char 
  3345 ;;  unit            1    6[COMMON] unsigned char 
  3346 ;; Return value:  Size  Location     Type
  3347 ;;                  1    wreg      unsigned char 
  3348 ;; Registers used:
  3349 ;;		wreg, status,2, status,0, pclath, cstack
  3350 ;; Tracked objects:
  3351 ;;		On entry : 0/0
  3352 ;;		On exit  : 0/0
  3353 ;;		Unchanged: 0/0
  3354 ;; Data sizes:     COMMON   BANK0   BANK1   BANK3   BANK2
  3355 ;;      Params:         0       0       0       0       0
  3356 ;;      Locals:         4       0       0       0       0
  3357 ;;      Temps:          2       0       0       0       0
  3358 ;;      Totals:         6       0       0       0       0
  3359 ;;Total ram usage:        6 bytes
  3360 ;; Hardware stack levels used:    1
  3361 ;; Hardware stack levels required when called:    1
  3362 ;; This function calls:
  3363 ;;		___bmul
  3364 ;; This function is called by:
  3365 ;;		_main
  3366 ;;		_store_data
  3367 ;; This function uses a non-reentrant model
  3368 ;;
  3369                           
  3370                           
  3371                           ;psect for function _BCD2Dec
  3372  0F6E                     _BCD2Dec:	
  3373                           
  3374                           ;incstack = 0
  3375                           ; Regs used in _BCD2Dec: [wreg+status,2+status,0+pclath+cstack]
  3376                           ;BCD2Dec@bcd stored from wreg
  3377  0F6E  00F8               	movwf	BCD2Dec@bcd
  3378                           
  3379                           ;i2c_rtc.c: 33: unsigned char ten,unit,temp;
  3380                           ;i2c_rtc.c: 34: ten = (bcd >> 4) & 0x0F;
  3381  0F6F  0878               	movf	BCD2Dec@bcd,w
  3382  0F70  00F4               	movwf	??_BCD2Dec
  3383  0F71  3004               	movlw	4
  3384  0F72                     u1055:	
  3385  0F72  1003               	clrc
  3386  0F73  0CF4               	rrf	??_BCD2Dec,f
  3387  0F74  3EFF               	addlw	-1
  3388  0F75  1D03               	skipz
  3389  0F76  2F72               	goto	u1055
  3390  0F77  0874               	movf	??_BCD2Dec,w
  3391  0F78  390F               	andlw	15
  3392  0F79  00F5               	movwf	??_BCD2Dec+1
  3393  0F7A  0875               	movf	??_BCD2Dec+1,w
  3394  0F7B  00F9               	movwf	BCD2Dec@ten
  3395                           
  3396                           ;i2c_rtc.c: 35: ten = ten*10;
  3397  0F7C  300A               	movlw	10
  3398  0F7D  00F4               	movwf	??_BCD2Dec
  3399  0F7E  0874               	movf	??_BCD2Dec,w
  3400  0F7F  00F0               	movwf	___bmul@multiplicand
  3401  0F80  0879               	movf	BCD2Dec@ten,w
  3402  0F81  120A  158A  2707   	fcall	___bmul
  3403  0F84  00F5               	movwf	??_BCD2Dec+1
  3404  0F85  0875               	movf	??_BCD2Dec+1,w
  3405  0F86  00F9               	movwf	BCD2Dec@ten
  3406                           
  3407                           ;i2c_rtc.c: 36: unit = bcd & 0x0F;
  3408  0F87  0878               	movf	BCD2Dec@bcd,w
  3409  0F88  390F               	andlw	15
  3410  0F89  00F4               	movwf	??_BCD2Dec
  3411  0F8A  0874               	movf	??_BCD2Dec,w
  3412  0F8B  00F6               	movwf	BCD2Dec@unit
  3413                           
  3414                           ;i2c_rtc.c: 37: temp = ten + unit;
  3415  0F8C  0876               	movf	BCD2Dec@unit,w
  3416  0F8D  0779               	addwf	BCD2Dec@ten,w
  3417  0F8E  00F4               	movwf	??_BCD2Dec
  3418  0F8F  0874               	movf	??_BCD2Dec,w
  3419  0F90  00F7               	movwf	BCD2Dec@temp
  3420                           
  3421                           ;i2c_rtc.c: 38: return(temp);
  3422  0F91  0877               	movf	BCD2Dec@temp,w
  3423  0F92  0008               	return
  3424  0F93                     __end_of_BCD2Dec:	
  3425                           
  3426                           	psect	text16
  3427  0F07                     __ptext16:	
  3428 ;; *************** function ___bmul *****************
  3429 ;; Defined at:
  3430 ;;		line 4 in file "C:\Program Files (x86)\Microchip\xc8\v1.33\sources\common\Umul8.c"
  3431 ;; Parameters:    Size  Location     Type
  3432 ;;  multiplier      1    wreg     unsigned char 
  3433 ;;  multiplicand    1    0[COMMON] unsigned char 
  3434 ;; Auto vars:     Size  Location     Type
  3435 ;;  multiplier      1    3[COMMON] unsigned char 
  3436 ;;  product         1    2[COMMON] unsigned char 
  3437 ;; Return value:  Size  Location     Type
  3438 ;;                  1    wreg      unsigned char 
  3439 ;; Registers used:
  3440 ;;		wreg, status,2, status,0
  3441 ;; Tracked objects:
  3442 ;;		On entry : 0/0
  3443 ;;		On exit  : 0/0
  3444 ;;		Unchanged: 0/0
  3445 ;; Data sizes:     COMMON   BANK0   BANK1   BANK3   BANK2
  3446 ;;      Params:         1       0       0       0       0
  3447 ;;      Locals:         2       0       0       0       0
  3448 ;;      Temps:          1       0       0       0       0
  3449 ;;      Totals:         4       0       0       0       0
  3450 ;;Total ram usage:        4 bytes
  3451 ;; Hardware stack levels used:    1
  3452 ;; This function calls:
  3453 ;;		Nothing
  3454 ;; This function is called by:
  3455 ;;		_BCD2Dec
  3456 ;; This function uses a non-reentrant model
  3457 ;;
  3458                           
  3459                           
  3460                           ;psect for function ___bmul
  3461  0F07                     ___bmul:	
  3462                           
  3463                           ;incstack = 0
  3464                           ; Regs used in ___bmul: [wreg+status,2+status,0]
  3465                           ;___bmul@multiplier stored from wreg
  3466  0F07  00F3               	movwf	___bmul@multiplier
  3467  0F08  01F2               	clrf	___bmul@product
  3468  0F09                     l1895:	
  3469  0F09  1C73               	btfss	___bmul@multiplier,0
  3470  0F0A  2F0F               	goto	l1899
  3471  0F0B  0870               	movf	___bmul@multiplicand,w
  3472  0F0C  00F1               	movwf	??___bmul
  3473  0F0D  0871               	movf	??___bmul,w
  3474  0F0E  07F2               	addwf	___bmul@product,f
  3475  0F0F                     l1899:	
  3476  0F0F  1003               	clrc
  3477  0F10  0DF0               	rlf	___bmul@multiplicand,f
  3478  0F11  1003               	clrc
  3479  0F12  0CF3               	rrf	___bmul@multiplier,f
  3480  0F13  08F3               	movf	___bmul@multiplier,f
  3481  0F14  1D03               	skipz
  3482  0F15  2F09               	goto	l1895
  3483  0F16  0872               	movf	___bmul@product,w
  3484  0F17  0008               	return
  3485  0F18                     __end_of___bmul:	
  3486                           
  3487                           	psect	text17
  3488  0F18                     __ptext17:	
  3489 ;; *************** function _serial_init *****************
  3490 ;; Defined at:
  3491 ;;		line 179 in file "D:\WALEED\live_person\mutaz\Project\main.c"
  3492 ;; Parameters:    Size  Location     Type
  3493 ;;		None
  3494 ;; Auto vars:     Size  Location     Type
  3495 ;;		None
  3496 ;; Return value:  Size  Location     Type
  3497 ;;		None               void
  3498 ;; Registers used:
  3499 ;;		wreg
  3500 ;; Tracked objects:
  3501 ;;		On entry : 0/0
  3502 ;;		On exit  : 0/0
  3503 ;;		Unchanged: 0/0
  3504 ;; Data sizes:     COMMON   BANK0   BANK1   BANK3   BANK2
  3505 ;;      Params:         0       0       0       0       0
  3506 ;;      Locals:         0       0       0       0       0
  3507 ;;      Temps:          0       0       0       0       0
  3508 ;;      Totals:         0       0       0       0       0
  3509 ;;Total ram usage:        0 bytes
  3510 ;; Hardware stack levels used:    1
  3511 ;; This function calls:
  3512 ;;		Nothing
  3513 ;; This function is called by:
  3514 ;;		_main
  3515 ;; This function uses a non-reentrant model
  3516 ;;
  3517                           
  3518                           
  3519                           ;psect for function _serial_init
  3520  0F18                     _serial_init:	
  3521                           
  3522                           ;main.c: 181: TRISC6=0;
  3523                           
  3524                           ;incstack = 0
  3525                           ; Regs used in _serial_init: [wreg]
  3526  0F18  1683               	bsf	3,5	;RP0=1, select bank1
  3527  0F19  1303               	bcf	3,6	;RP1=0, select bank1
  3528  0F1A  1307               	bcf	7,6	;volatile
  3529                           
  3530                           ;main.c: 182: TRISC7=1;
  3531  0F1B  1787               	bsf	7,7	;volatile
  3532                           
  3533                           ;main.c: 183: TXSTA=0x24;
  3534  0F1C  3024               	movlw	36
  3535  0F1D  0098               	movwf	24	;volatile
  3536                           
  3537                           ;main.c: 184: SPBRG=129;
  3538  0F1E  3081               	movlw	129
  3539  0F1F  0099               	movwf	25	;volatile
  3540                           
  3541                           ;main.c: 185: SPEN=1;
  3542  0F20  1283               	bcf	3,5	;RP0=0, select bank0
  3543  0F21  1303               	bcf	3,6	;RP1=0, select bank0
  3544  0F22  1798               	bsf	24,7	;volatile
  3545                           
  3546                           ;main.c: 186: CREN=1;
  3547  0F23  1618               	bsf	24,4	;volatile
  3548                           
  3549                           ;main.c: 187: TXEN=1;
  3550  0F24  1683               	bsf	3,5	;RP0=1, select bank1
  3551  0F25  1303               	bcf	3,6	;RP1=0, select bank1
  3552  0F26  1698               	bsf	24,5	;volatile
  3553                           
  3554                           ;main.c: 188: BRGH=1;
  3555  0F27  1518               	bsf	24,2	;volatile
  3556                           
  3557                           ;main.c: 189: TXIF=1;
  3558  0F28  1283               	bcf	3,5	;RP0=0, select bank0
  3559  0F29  1303               	bcf	3,6	;RP1=0, select bank0
  3560  0F2A  160C               	bsf	12,4	;volatile
  3561  0F2B  0008               	return
  3562  0F2C                     __end_of_serial_init:	
  3563                           
  3564                           	psect	text18
  3565  0207                     __ptext18:	
  3566 ;; *************** function _printf *****************
  3567 ;; Defined at:
  3568 ;;		line 464 in file "C:\Program Files (x86)\Microchip\xc8\v1.33\sources\common\doprnt.c"
  3569 ;; Parameters:    Size  Location     Type
  3570 ;;  f               1    wreg     PTR const unsigned char 
  3571 ;;		 -> STR_20(4), STR_19(18), STR_18(17), STR_17(4), 
  3572 ;;		 -> STR_16(18), STR_15(17), STR_14(4), STR_13(18), 
  3573 ;;		 -> STR_12(17), STR_11(4), STR_10(18), STR_9(17), 
  3574 ;;		 -> STR_8(4), STR_7(3), STR_6(31), STR_5(4), 
  3575 ;;		 -> STR_4(4), STR_3(9), STR_2(4), STR_1(26), 
  3576 ;; Auto vars:     Size  Location     Type
  3577 ;;  f               1    9[BANK0 ] PTR const unsigned char 
  3578 ;;		 -> STR_20(4), STR_19(18), STR_18(17), STR_17(4), 
  3579 ;;		 -> STR_16(18), STR_15(17), STR_14(4), STR_13(18), 
  3580 ;;		 -> STR_12(17), STR_11(4), STR_10(18), STR_9(17), 
  3581 ;;		 -> STR_8(4), STR_7(3), STR_6(31), STR_5(4), 
  3582 ;;		 -> STR_4(4), STR_3(9), STR_2(4), STR_1(26), 
  3583 ;;  idx             1    1[BANK0 ] unsigned char 
  3584 ;;  _val            4    3[BANK0 ] struct .
  3585 ;;  c               1    8[BANK0 ] char 
  3586 ;;  prec            1    7[BANK0 ] char 
  3587 ;;  ap              1    2[BANK0 ] PTR void [1]
  3588 ;;		 -> ?_printf(2), 
  3589 ;;  flag            1    0[BANK0 ] unsigned char 
  3590 ;; Return value:  Size  Location     Type
  3591 ;;                  2    8[COMMON] int 
  3592 ;; Registers used:
  3593 ;;		wreg, fsr0l, fsr0h, status,2, status,0, btemp+1, pclath, cstack
  3594 ;; Tracked objects:
  3595 ;;		On entry : 0/0
  3596 ;;		On exit  : 0/0
  3597 ;;		Unchanged: 0/0
  3598 ;; Data sizes:     COMMON   BANK0   BANK1   BANK3   BANK2
  3599 ;;      Params:         2       0       0       0       0
  3600 ;;      Locals:         0      10       0       0       0
  3601 ;;      Temps:          3       0       0       0       0
  3602 ;;      Totals:         5      10       0       0       0
  3603 ;;Total ram usage:       15 bytes
  3604 ;; Hardware stack levels used:    1
  3605 ;; Hardware stack levels required when called:    1
  3606 ;; This function calls:
  3607 ;;		___lwdiv
  3608 ;;		_putch
  3609 ;; This function is called by:
  3610 ;;		_main
  3611 ;; This function uses a non-reentrant model
  3612 ;;
  3613                           
  3614                           
  3615                           ;psect for function _printf
  3616  0207                     _printf:	
  3617                           
  3618                           ;incstack = 0
  3619                           ; Regs used in _printf: [wreg-fsr0h+status,2+status,0+btemp+1+pclath+cstack]
  3620                           ;printf@f stored from wreg
  3621  0207  1283               	bcf	3,5	;RP0=0, select bank0
  3622  0208  1303               	bcf	3,6	;RP1=0, select bank0
  3623  0209  00DC               	movwf	printf@f
  3624                           
  3625                           ;doprnt.c: 466: va_list ap;
  3626                           ;doprnt.c: 499: signed char c;
  3627                           ;doprnt.c: 506: signed char prec;
  3628                           ;doprnt.c: 508: unsigned char flag;
  3629                           ;doprnt.c: 527: union {
  3630                           ;doprnt.c: 528: unsigned int _val;
  3631                           ;doprnt.c: 529: struct {
  3632                           ;doprnt.c: 530: const char * _cp;
  3633                           ;doprnt.c: 531: unsigned _len;
  3634                           ;doprnt.c: 532: } _str;
  3635                           ;doprnt.c: 533: } _val;
  3636                           ;doprnt.c: 542: *ap = __va_start();
  3637  020A  3078               	movlw	?_printf& (0+255)
  3638  020B  00FA               	movwf	??_printf
  3639  020C  087A               	movf	??_printf,w
  3640  020D  00D5               	movwf	printf@ap
  3641  020E                     l2251:	
  3642                           ;doprnt.c: 545: while(c = *f++) {
  3643                           
  3644  020E  3001               	movlw	1
  3645  020F  1283               	bcf	3,5	;RP0=0, select bank0
  3646  0210  1303               	bcf	3,6	;RP1=0, select bank0
  3647  0211  07DC               	addwf	printf@f,f
  3648  0212  30FF               	movlw	-1
  3649  0213  075C               	addwf	printf@f,w
  3650  0214  0084               	movwf	4
  3651  0215  120A  118A  2003  120A  118A  	fcall	stringdir
  3652  021A  00FA               	movwf	??_printf
  3653  021B  087A               	movf	??_printf,w
  3654  021C  00DB               	movwf	printf@c
  3655  021D  08DB               	movf	printf@c,f
  3656  021E  1903               	btfsc	3,2
  3657  021F  0008               	return
  3658                           
  3659                           ;doprnt.c: 547: if(c != '%')
  3660  0220  085B               	movf	printf@c,w
  3661  0221  3A25               	xorlw	37
  3662  0222  1903               	skipnz
  3663  0223  2A2B               	goto	l2217
  3664                           
  3665                           ;doprnt.c: 549: {
  3666                           ;doprnt.c: 550: (putch(c) );
  3667  0224  085B               	movf	printf@c,w
  3668  0225  120A  158A  26A7  120A  118A  	fcall	_putch
  3669                           
  3670                           ;doprnt.c: 551: continue;
  3671  022A  2A0E               	goto	l2251
  3672  022B                     l2217:	
  3673                           
  3674                           ;doprnt.c: 552: }
  3675                           ;doprnt.c: 557: flag = 0;
  3676  022B  1283               	bcf	3,5	;RP0=0, select bank0
  3677  022C  1303               	bcf	3,6	;RP1=0, select bank0
  3678  022D  01D3               	clrf	printf@flag
  3679                           
  3680                           ;doprnt.c: 831: }
  3681                           
  3682                           ;doprnt.c: 822: continue;
  3683                           
  3684                           ;doprnt.c: 811: default:
  3685                           
  3686                           ;doprnt.c: 732: break;
  3687                           
  3688                           ;doprnt.c: 727: case 'x':
  3689                           
  3690                           ;doprnt.c: 647: goto alldone;
  3691                           
  3692                           ;doprnt.c: 646: case 0:
  3693                           
  3694                           ;doprnt.c: 644: switch(c = *f++) {
  3695  022E  3001               	movlw	1
  3696  022F  07DC               	addwf	printf@f,f
  3697  0230  30FF               	movlw	-1
  3698  0231  075C               	addwf	printf@f,w
  3699  0232  0084               	movwf	4
  3700  0233  120A  118A  2003  120A  118A  	fcall	stringdir
  3701  0238  00DB               	movwf	printf@c
  3702                           
  3703                           ; Switch size 1, requested type "space"
  3704                           ; Number of cases is 2, Range of values is 0 to 120
  3705                           ; switch strategies available:
  3706                           ; Name         Instructions Cycles
  3707                           ; simple_byte            7     4 (average)
  3708                           ; jumptable            260     6 (fixed)
  3709                           ;	Chosen strategy is simple_byte
  3710  0239  3A00               	xorlw	0	; case 0
  3711  023A  1903               	skipnz
  3712  023B  2AB5               	goto	l870
  3713  023C  3A78               	xorlw	120	; case 120
  3714  023D  1903               	skipnz
  3715  023E  2A40               	goto	l2223
  3716  023F  2A0E               	goto	l2251
  3717  0240                     l2223:	
  3718                           
  3719                           ;doprnt.c: 1282: {
  3720                           ;doprnt.c: 1295: _val._val = (*(unsigned *)__va_arg((*(unsigned **)ap), (unsigned)0));
  3721  0240  0855               	movf	printf@ap,w
  3722  0241  0084               	movwf	4
  3723  0242  0800               	movf	0,w
  3724  0243  00D6               	movwf	printf@_val
  3725  0244  0A84               	incf	4,f
  3726  0245  0800               	movf	0,w
  3727  0246  00D7               	movwf	printf@_val+1
  3728  0247  3002               	movlw	2
  3729  0248  00FA               	movwf	??_printf
  3730  0249  087A               	movf	??_printf,w
  3731  024A  07D5               	addwf	printf@ap,f
  3732                           
  3733                           ;doprnt.c: 1296: }
  3734                           ;doprnt.c: 1325: for(c = 1 ; c != sizeof hexpowers/sizeof hexpowers[0] ; c++)
  3735  024B  01DB               	clrf	printf@c
  3736  024C  0ADB               	incf	printf@c,f
  3737  024D  085B               	movf	printf@c,w
  3738  024E  3A04               	xorlw	4
  3739  024F  1903               	btfsc	3,2
  3740  0250  2A72               	goto	l2241
  3741  0251                     l2233:	
  3742                           
  3743                           ;doprnt.c: 1326: if(_val._val < hexpowers[c])
  3744  0251  085B               	movf	printf@c,w
  3745  0252  00FA               	movwf	??_printf
  3746  0253  077A               	addwf	??_printf,w
  3747  0254  3E01               	addlw	low (_hexpowers-__stringbase)
  3748  0255  0084               	movwf	4
  3749  0256  120A  118A  2003  120A  118A  	fcall	stringdir
  3750  025B  00FB               	movwf	??_printf+1
  3751  025C  120A  118A  2003  120A  118A  	fcall	stringdir
  3752  0261  00FC               	movwf	??_printf+2
  3753  0262  087C               	movf	??_printf+2,w
  3754  0263  0257               	subwf	printf@_val+1,w
  3755  0264  1D03               	skipz
  3756  0265  2A68               	goto	u1535
  3757  0266  087B               	movf	??_printf+1,w
  3758  0267  0256               	subwf	printf@_val,w
  3759  0268                     u1535:	
  3760  0268  1C03               	btfss	3,0
  3761  0269  2A72               	goto	l2241
  3762                           
  3763                           ;doprnt.c: 1327: break;
  3764  026A  3001               	movlw	1
  3765  026B  00FA               	movwf	??_printf
  3766  026C  087A               	movf	??_printf,w
  3767  026D  07DB               	addwf	printf@c,f
  3768  026E  085B               	movf	printf@c,w
  3769  026F  3A04               	xorlw	4
  3770  0270  1D03               	skipz
  3771  0271  2A51               	goto	l2233
  3772  0272                     l2241:	
  3773                           
  3774                           ;doprnt.c: 1431: {
  3775                           ;doprnt.c: 1478: }
  3776                           ;doprnt.c: 1481: prec = c;
  3777  0272  085B               	movf	printf@c,w
  3778  0273  00FA               	movwf	??_printf
  3779  0274  087A               	movf	??_printf,w
  3780  0275  00DA               	movwf	printf@prec
  3781  0276                     l2249:	
  3782                           ;doprnt.c: 1483: while(prec--) {
  3783                           
  3784  0276  30FF               	movlw	-1
  3785  0277  00FA               	movwf	??_printf
  3786  0278  087A               	movf	??_printf,w
  3787  0279  1283               	bcf	3,5	;RP0=0, select bank0
  3788  027A  1303               	bcf	3,6	;RP1=0, select bank0
  3789  027B  07DA               	addwf	printf@prec,f
  3790  027C  085A               	movf	printf@prec,w
  3791  027D  3AFF               	xorlw	-1
  3792  027E  1903               	btfsc	3,2
  3793  027F  2A0E               	goto	l2251
  3794                           
  3795                           ;doprnt.c: 1487: {
  3796                           ;doprnt.c: 1508: {
  3797                           ;doprnt.c: 1509: unsigned char idx = (_val._val / hexpowers[prec]) & 0xF;
  3798  0280  085A               	movf	printf@prec,w
  3799  0281  00FA               	movwf	??_printf
  3800  0282  077A               	addwf	??_printf,w
  3801  0283  3E01               	addlw	low (_hexpowers-__stringbase)
  3802  0284  0084               	movwf	4
  3803  0285  120A  118A  2003  120A  118A  	fcall	stringdir
  3804  028A  00F0               	movwf	___lwdiv@divisor
  3805  028B  120A  118A  2003  120A  118A  	fcall	stringdir
  3806  0290  00F1               	movwf	___lwdiv@divisor+1
  3807  0291  0857               	movf	printf@_val+1,w
  3808  0292  01F3               	clrf	___lwdiv@dividend+1
  3809  0293  07F3               	addwf	___lwdiv@dividend+1,f
  3810  0294  0856               	movf	printf@_val,w
  3811  0295  01F2               	clrf	___lwdiv@dividend
  3812  0296  07F2               	addwf	___lwdiv@dividend,f
  3813  0297  120A  158A  27C2  120A  118A  	fcall	___lwdiv
  3814  029C  0870               	movf	?___lwdiv,w
  3815  029D  390F               	andlw	15
  3816  029E  00FB               	movwf	??_printf+1
  3817  029F  087B               	movf	??_printf+1,w
  3818  02A0  1283               	bcf	3,5	;RP0=0, select bank0
  3819  02A1  1303               	bcf	3,6	;RP1=0, select bank0
  3820  02A2  00D4               	movwf	printf@idx
  3821                           
  3822                           ;doprnt.c: 1515: c = "0123456789abcdef"[idx];
  3823  02A3  0854               	movf	printf@idx,w
  3824  02A4  3E8A               	addlw	low (STR_21-__stringbase)
  3825  02A5  0084               	movwf	4
  3826  02A6  120A  118A  2003  120A  118A  	fcall	stringdir
  3827  02AB  00FA               	movwf	??_printf
  3828  02AC  087A               	movf	??_printf,w
  3829  02AD  00DB               	movwf	printf@c
  3830                           
  3831                           ;doprnt.c: 1517: }
  3832                           ;doprnt.c: 1532: }
  3833                           ;doprnt.c: 1533: (putch(c) );
  3834  02AE  085B               	movf	printf@c,w
  3835  02AF  120A  158A  26A7  120A  118A  	fcall	_putch
  3836  02B4  2A76               	goto	l2249
  3837  02B5                     l870:	
  3838                           ;doprnt.c: 1549: return 0;
  3839                           ;	Return value of _printf is never used
  3840                           
  3841                           ;doprnt.c: 1534: }
  3842                           ;doprnt.c: 1542: }
  3843                           ;doprnt.c: 1544: alldone:
  3844                           
  3845  02B5  0008               	return
  3846  02B6                     __end_of_printf:	
  3847                           
  3848                           	psect	text19
  3849  0EA7                     __ptext19:	
  3850 ;; *************** function _putch *****************
  3851 ;; Defined at:
  3852 ;;		line 194 in file "D:\WALEED\live_person\mutaz\Project\main.c"
  3853 ;; Parameters:    Size  Location     Type
  3854 ;;  byte            1    wreg     unsigned char 
  3855 ;; Auto vars:     Size  Location     Type
  3856 ;;  byte            1    0[COMMON] unsigned char 
  3857 ;; Return value:  Size  Location     Type
  3858 ;;		None               void
  3859 ;; Registers used:
  3860 ;;		wreg
  3861 ;; Tracked objects:
  3862 ;;		On entry : 0/0
  3863 ;;		On exit  : 0/0
  3864 ;;		Unchanged: 0/0
  3865 ;; Data sizes:     COMMON   BANK0   BANK1   BANK3   BANK2
  3866 ;;      Params:         0       0       0       0       0
  3867 ;;      Locals:         1       0       0       0       0
  3868 ;;      Temps:          0       0       0       0       0
  3869 ;;      Totals:         1       0       0       0       0
  3870 ;;Total ram usage:        1 bytes
  3871 ;; Hardware stack levels used:    1
  3872 ;; This function calls:
  3873 ;;		Nothing
  3874 ;; This function is called by:
  3875 ;;		_printf
  3876 ;; This function uses a non-reentrant model
  3877 ;;
  3878                           
  3879                           
  3880                           ;psect for function _putch
  3881  0EA7                     _putch:	
  3882                           
  3883                           ;incstack = 0
  3884                           ; Regs used in _putch: [wreg]
  3885                           ;putch@byte stored from wreg
  3886  0EA7  00F0               	movwf	putch@byte
  3887  0EA8                     l190:	
  3888                           ;main.c: 196: while(!TXIF);
  3889                           
  3890  0EA8  1283               	bcf	3,5	;RP0=0, select bank0
  3891  0EA9  1303               	bcf	3,6	;RP1=0, select bank0
  3892  0EAA  1E0C               	btfss	12,4	;volatile
  3893  0EAB  2EA8               	goto	l190
  3894                           
  3895                           ;main.c: 197: TXREG = byte;
  3896  0EAC  0870               	movf	putch@byte,w
  3897  0EAD  0099               	movwf	25	;volatile
  3898  0EAE  0008               	return
  3899  0EAF                     __end_of_putch:	
  3900                           
  3901                           	psect	text20
  3902  0FC2                     __ptext20:	
  3903 ;; *************** function ___lwdiv *****************
  3904 ;; Defined at:
  3905 ;;		line 6 in file "C:\Program Files (x86)\Microchip\xc8\v1.33\sources\common\lwdiv.c"
  3906 ;; Parameters:    Size  Location     Type
  3907 ;;  divisor         2    0[COMMON] unsigned int 
  3908 ;;  dividend        2    2[COMMON] unsigned int 
  3909 ;; Auto vars:     Size  Location     Type
  3910 ;;  quotient        2    5[COMMON] unsigned int 
  3911 ;;  counter         1    7[COMMON] unsigned char 
  3912 ;; Return value:  Size  Location     Type
  3913 ;;                  2    0[COMMON] unsigned int 
  3914 ;; Registers used:
  3915 ;;		wreg, status,2, status,0
  3916 ;; Tracked objects:
  3917 ;;		On entry : 0/0
  3918 ;;		On exit  : 0/0
  3919 ;;		Unchanged: 0/0
  3920 ;; Data sizes:     COMMON   BANK0   BANK1   BANK3   BANK2
  3921 ;;      Params:         4       0       0       0       0
  3922 ;;      Locals:         3       0       0       0       0
  3923 ;;      Temps:          1       0       0       0       0
  3924 ;;      Totals:         8       0       0       0       0
  3925 ;;Total ram usage:        8 bytes
  3926 ;; Hardware stack levels used:    1
  3927 ;; This function calls:
  3928 ;;		Nothing
  3929 ;; This function is called by:
  3930 ;;		_printf
  3931 ;; This function uses a non-reentrant model
  3932 ;;
  3933                           
  3934                           
  3935                           ;psect for function ___lwdiv
  3936  0FC2                     ___lwdiv:	
  3937                           
  3938                           ;incstack = 0
  3939                           ; Regs used in ___lwdiv: [wreg+status,2+status,0]
  3940  0FC2  01F5               	clrf	___lwdiv@quotient
  3941  0FC3  01F6               	clrf	___lwdiv@quotient+1
  3942  0FC4  0871               	movf	___lwdiv@divisor+1,w
  3943  0FC5  0470               	iorwf	___lwdiv@divisor,w
  3944  0FC6  1903               	skipnz
  3945  0FC7  2FF9               	goto	l2143
  3946  0FC8  01F7               	clrf	___lwdiv@counter
  3947  0FC9  0AF7               	incf	___lwdiv@counter,f
  3948  0FCA                     l2131:	
  3949  0FCA  1BF1               	btfsc	___lwdiv@divisor+1,7
  3950  0FCB  2FD8               	goto	l2133
  3951  0FCC  3001               	movlw	1
  3952  0FCD                     u1445:	
  3953  0FCD  1003               	clrc
  3954  0FCE  0DF0               	rlf	___lwdiv@divisor,f
  3955  0FCF  0DF1               	rlf	___lwdiv@divisor+1,f
  3956  0FD0  3EFF               	addlw	-1
  3957  0FD1  1D03               	skipz
  3958  0FD2  2FCD               	goto	u1445
  3959  0FD3  3001               	movlw	1
  3960  0FD4  00F4               	movwf	??___lwdiv
  3961  0FD5  0874               	movf	??___lwdiv,w
  3962  0FD6  07F7               	addwf	___lwdiv@counter,f
  3963  0FD7  2FCA               	goto	l2131
  3964  0FD8                     l2133:	
  3965  0FD8  3001               	movlw	1
  3966  0FD9                     u1465:	
  3967  0FD9  1003               	clrc
  3968  0FDA  0DF5               	rlf	___lwdiv@quotient,f
  3969  0FDB  0DF6               	rlf	___lwdiv@quotient+1,f
  3970  0FDC  3EFF               	addlw	-1
  3971  0FDD  1D03               	skipz
  3972  0FDE  2FD9               	goto	u1465
  3973  0FDF  0871               	movf	___lwdiv@divisor+1,w
  3974  0FE0  0273               	subwf	___lwdiv@dividend+1,w
  3975  0FE1  1D03               	skipz
  3976  0FE2  2FE5               	goto	u1475
  3977  0FE3  0870               	movf	___lwdiv@divisor,w
  3978  0FE4  0272               	subwf	___lwdiv@dividend,w
  3979  0FE5                     u1475:	
  3980  0FE5  1C03               	skipc
  3981  0FE6  2FEE               	goto	l2139
  3982  0FE7  0870               	movf	___lwdiv@divisor,w
  3983  0FE8  02F2               	subwf	___lwdiv@dividend,f
  3984  0FE9  0871               	movf	___lwdiv@divisor+1,w
  3985  0FEA  1C03               	skipc
  3986  0FEB  03F3               	decf	___lwdiv@dividend+1,f
  3987  0FEC  02F3               	subwf	___lwdiv@dividend+1,f
  3988  0FED  1475               	bsf	___lwdiv@quotient,0
  3989  0FEE                     l2139:	
  3990  0FEE  3001               	movlw	1
  3991  0FEF                     u1485:	
  3992  0FEF  1003               	clrc
  3993  0FF0  0CF1               	rrf	___lwdiv@divisor+1,f
  3994  0FF1  0CF0               	rrf	___lwdiv@divisor,f
  3995  0FF2  3EFF               	addlw	-1
  3996  0FF3  1D03               	skipz
  3997  0FF4  2FEF               	goto	u1485
  3998  0FF5  3001               	movlw	1
  3999  0FF6  02F7               	subwf	___lwdiv@counter,f
  4000  0FF7  1D03               	btfss	3,2
  4001  0FF8  2FD8               	goto	l2133
  4002  0FF9                     l2143:	
  4003  0FF9  0876               	movf	___lwdiv@quotient+1,w
  4004  0FFA  01F1               	clrf	?___lwdiv+1
  4005  0FFB  07F1               	addwf	?___lwdiv+1,f
  4006  0FFC  0875               	movf	___lwdiv@quotient,w
  4007  0FFD  01F0               	clrf	?___lwdiv
  4008  0FFE  07F0               	addwf	?___lwdiv,f
  4009  0FFF  0008               	return
  4010  1000                     __end_of___lwdiv:	
  4011                           
  4012                           	psect	text21
  4013  0EF9                     __ptext21:	
  4014 ;; *************** function _i2c_init *****************
  4015 ;; Defined at:
  4016 ;;		line 202 in file "D:\WALEED\live_person\mutaz\Project\main.c"
  4017 ;; Parameters:    Size  Location     Type
  4018 ;;		None
  4019 ;; Auto vars:     Size  Location     Type
  4020 ;;		None
  4021 ;; Return value:  Size  Location     Type
  4022 ;;		None               void
  4023 ;; Registers used:
  4024 ;;		wreg
  4025 ;; Tracked objects:
  4026 ;;		On entry : 0/0
  4027 ;;		On exit  : 0/0
  4028 ;;		Unchanged: 0/0
  4029 ;; Data sizes:     COMMON   BANK0   BANK1   BANK3   BANK2
  4030 ;;      Params:         0       0       0       0       0
  4031 ;;      Locals:         0       0       0       0       0
  4032 ;;      Temps:          0       0       0       0       0
  4033 ;;      Totals:         0       0       0       0       0
  4034 ;;Total ram usage:        0 bytes
  4035 ;; Hardware stack levels used:    1
  4036 ;; This function calls:
  4037 ;;		Nothing
  4038 ;; This function is called by:
  4039 ;;		_main
  4040 ;; This function uses a non-reentrant model
  4041 ;;
  4042                           
  4043                           
  4044                           ;psect for function _i2c_init
  4045  0EF9                     _i2c_init:	
  4046                           
  4047                           ;main.c: 204: TRISC3 = 1;
  4048                           
  4049                           ;incstack = 0
  4050                           ; Regs used in _i2c_init: [wreg]
  4051  0EF9  1683               	bsf	3,5	;RP0=1, select bank1
  4052  0EFA  1303               	bcf	3,6	;RP1=0, select bank1
  4053  0EFB  1587               	bsf	7,3	;volatile
  4054                           
  4055                           ;main.c: 205: TRISC4 = 1;
  4056  0EFC  1607               	bsf	7,4	;volatile
  4057                           
  4058                           ;main.c: 206: SSPSTAT |= 0x80;
  4059  0EFD  1794               	bsf	20,7	;volatile
  4060                           
  4061                           ;main.c: 207: SSPCON = 0x28;
  4062  0EFE  3028               	movlw	40
  4063  0EFF  1283               	bcf	3,5	;RP0=0, select bank0
  4064  0F00  1303               	bcf	3,6	;RP1=0, select bank0
  4065  0F01  0094               	movwf	20	;volatile
  4066                           
  4067                           ;main.c: 208: SSPADD = 0x97;
  4068  0F02  3097               	movlw	151
  4069  0F03  1683               	bsf	3,5	;RP0=1, select bank1
  4070  0F04  1303               	bcf	3,6	;RP1=0, select bank1
  4071  0F05  0093               	movwf	19	;volatile
  4072  0F06  0008               	return
  4073  0F07                     __end_of_i2c_init:	
  4074                           
  4075                           	psect	text22
  4076  0EEC                     __ptext22:	
  4077 ;; *************** function _adc_init *****************
  4078 ;; Defined at:
  4079 ;;		line 171 in file "D:\WALEED\live_person\mutaz\Project\main.c"
  4080 ;; Parameters:    Size  Location     Type
  4081 ;;		None
  4082 ;; Auto vars:     Size  Location     Type
  4083 ;;		None
  4084 ;; Return value:  Size  Location     Type
  4085 ;;		None               void
  4086 ;; Registers used:
  4087 ;;		wreg
  4088 ;; Tracked objects:
  4089 ;;		On entry : 0/0
  4090 ;;		On exit  : 0/0
  4091 ;;		Unchanged: 0/0
  4092 ;; Data sizes:     COMMON   BANK0   BANK1   BANK3   BANK2
  4093 ;;      Params:         0       0       0       0       0
  4094 ;;      Locals:         0       0       0       0       0
  4095 ;;      Temps:          0       0       0       0       0
  4096 ;;      Totals:         0       0       0       0       0
  4097 ;;Total ram usage:        0 bytes
  4098 ;; Hardware stack levels used:    1
  4099 ;; This function calls:
  4100 ;;		Nothing
  4101 ;; This function is called by:
  4102 ;;		_main
  4103 ;; This function uses a non-reentrant model
  4104 ;;
  4105                           
  4106                           
  4107                           ;psect for function _adc_init
  4108  0EEC                     _adc_init:	
  4109                           
  4110                           ;main.c: 173: TRISA = 0xFE;
  4111                           
  4112                           ;incstack = 0
  4113                           ; Regs used in _adc_init: [wreg]
  4114  0EEC  30FE               	movlw	254
  4115  0EED  1683               	bsf	3,5	;RP0=1, select bank1
  4116  0EEE  1303               	bcf	3,6	;RP1=0, select bank1
  4117  0EEF  0085               	movwf	5	;volatile
  4118                           
  4119                           ;main.c: 174: ADCON0 = 0x81;
  4120  0EF0  3081               	movlw	129
  4121  0EF1  1283               	bcf	3,5	;RP0=0, select bank0
  4122  0EF2  1303               	bcf	3,6	;RP1=0, select bank0
  4123  0EF3  009F               	movwf	31	;volatile
  4124                           
  4125                           ;main.c: 175: ADCON1 = 0xCE;
  4126  0EF4  30CE               	movlw	206
  4127  0EF5  1683               	bsf	3,5	;RP0=1, select bank1
  4128  0EF6  1303               	bcf	3,6	;RP1=0, select bank1
  4129  0EF7  009F               	movwf	31	;volatile
  4130  0EF8  0008               	return
  4131  0EF9                     __end_of_adc_init:	
  4132                           
  4133                           	psect	text23
  4134  0F2C                     __ptext23:	
  4135 ;; *************** function _Asci2BCD *****************
  4136 ;; Defined at:
  4137 ;;		line 21 in file "D:\WALEED\live_person\mutaz\Project\i2c_rtc.c"
  4138 ;; Parameters:    Size  Location     Type
  4139 ;;  upper           1    wreg     unsigned char 
  4140 ;;  lower           1    0[COMMON] unsigned char 
  4141 ;; Auto vars:     Size  Location     Type
  4142 ;;  upper           1    3[COMMON] unsigned char 
  4143 ;;  U               1    6[COMMON] unsigned char 
  4144 ;;  chr             1    5[COMMON] unsigned char 
  4145 ;;  L               1    4[COMMON] unsigned char 
  4146 ;; Return value:  Size  Location     Type
  4147 ;;                  1    wreg      unsigned char 
  4148 ;; Registers used:
  4149 ;;		wreg, status,2, status,0
  4150 ;; Tracked objects:
  4151 ;;		On entry : 0/0
  4152 ;;		On exit  : 0/0
  4153 ;;		Unchanged: 0/0
  4154 ;; Data sizes:     COMMON   BANK0   BANK1   BANK3   BANK2
  4155 ;;      Params:         1       0       0       0       0
  4156 ;;      Locals:         4       0       0       0       0
  4157 ;;      Temps:          2       0       0       0       0
  4158 ;;      Totals:         7       0       0       0       0
  4159 ;;Total ram usage:        7 bytes
  4160 ;; Hardware stack levels used:    1
  4161 ;; This function calls:
  4162 ;;		Nothing
  4163 ;; This function is called by:
  4164 ;;		_main
  4165 ;; This function uses a non-reentrant model
  4166 ;;
  4167                           
  4168                           
  4169                           ;psect for function _Asci2BCD
  4170  0F2C                     _Asci2BCD:	
  4171                           
  4172                           ;incstack = 0
  4173                           ; Regs used in _Asci2BCD: [wreg+status,2+status,0]
  4174                           ;Asci2BCD@upper stored from wreg
  4175  0F2C  00F3               	movwf	Asci2BCD@upper
  4176                           
  4177                           ;i2c_rtc.c: 23: unsigned char U,L,chr;
  4178                           ;i2c_rtc.c: 24: U=upper&0x0F;
  4179  0F2D  0873               	movf	Asci2BCD@upper,w
  4180  0F2E  390F               	andlw	15
  4181  0F2F  00F1               	movwf	??_Asci2BCD
  4182  0F30  0871               	movf	??_Asci2BCD,w
  4183  0F31  00F6               	movwf	Asci2BCD@U
  4184                           
  4185                           ;i2c_rtc.c: 25: U=U<<4;
  4186  0F32  0876               	movf	Asci2BCD@U,w
  4187  0F33  00F1               	movwf	??_Asci2BCD
  4188  0F34  3003               	movlw	3
  4189  0F35                     u1575:	
  4190  0F35  1003               	clrc
  4191  0F36  0DF1               	rlf	??_Asci2BCD,f
  4192  0F37  3EFF               	addlw	-1
  4193  0F38  1D03               	skipz
  4194  0F39  2F35               	goto	u1575
  4195  0F3A  1003               	clrc
  4196  0F3B  0D71               	rlf	??_Asci2BCD,w
  4197  0F3C  00F2               	movwf	??_Asci2BCD+1
  4198  0F3D  0872               	movf	??_Asci2BCD+1,w
  4199  0F3E  00F6               	movwf	Asci2BCD@U
  4200                           
  4201                           ;i2c_rtc.c: 26: L=lower & 0x0F;
  4202  0F3F  0870               	movf	Asci2BCD@lower,w
  4203  0F40  390F               	andlw	15
  4204  0F41  00F1               	movwf	??_Asci2BCD
  4205  0F42  0871               	movf	??_Asci2BCD,w
  4206  0F43  00F4               	movwf	Asci2BCD@L
  4207                           
  4208                           ;i2c_rtc.c: 27: chr = U|L;
  4209  0F44  0876               	movf	Asci2BCD@U,w
  4210  0F45  0474               	iorwf	Asci2BCD@L,w
  4211  0F46  00F1               	movwf	??_Asci2BCD
  4212  0F47  0871               	movf	??_Asci2BCD,w
  4213  0F48  00F5               	movwf	Asci2BCD@chr
  4214                           
  4215                           ;i2c_rtc.c: 28: return chr;
  4216  0F49  0875               	movf	Asci2BCD@chr,w
  4217  0F4A  0008               	return
  4218  0F4B                     __end_of_Asci2BCD:	
  4219  007E                     btemp	set	126	;btemp
  4220  007E                     wtemp	set	126
  4221  007E                     wtemp0	set	126
  4222  0080                     wtemp1	set	128
  4223  0082                     wtemp2	set	130
  4224  0084                     wtemp3	set	132
  4225  0086                     wtemp4	set	134
  4226  0088                     wtemp5	set	136
  4227  007F                     wtemp6	set	127
  4228  007E                     ttemp	set	126
  4229  007E                     ttemp0	set	126
  4230  0081                     ttemp1	set	129
  4231  0084                     ttemp2	set	132
  4232  0087                     ttemp3	set	135
  4233  007F                     ttemp4	set	127
  4234  007E                     ltemp	set	126
  4235  007E                     ltemp0	set	126
  4236  0082                     ltemp1	set	130
  4237  0086                     ltemp2	set	134
  4238  0080                     ltemp3	set	128


Data Sizes:
    Strings     230
    Constant    8
    Data        3
    BSS         51
    Persistent  0
    Stack       0

Auto Spaces:
    Space          Size  Autos    Used
    COMMON           14     14      14
    BANK0            80     22      76
    BANK1            80      0       0
    BANK3            96      0       0
    BANK2            96      0       0

Pointer List with Targets:

    printf@f	PTR const unsigned char  size(1) Largest target is 31
		 -> STR_20(CODE[4]), STR_19(CODE[18]), STR_18(CODE[17]), STR_17(CODE[4]), 
		 -> STR_16(CODE[18]), STR_15(CODE[17]), STR_14(CODE[4]), STR_13(CODE[18]), 
		 -> STR_12(CODE[17]), STR_11(CODE[4]), STR_10(CODE[18]), STR_9(CODE[17]), 
		 -> STR_8(CODE[4]), STR_7(CODE[3]), STR_6(CODE[31]), STR_5(CODE[4]), 
		 -> STR_4(CODE[4]), STR_3(CODE[9]), STR_2(CODE[4]), STR_1(CODE[26]), 

    printf@ap	PTR void [1] size(1) Largest target is 2
		 -> ?_printf(COMMON[2]), 

    S515$_cp	PTR const unsigned char  size(1) Largest target is 0

    _val._str._cp	PTR const unsigned char  size(1) Largest target is 0


Critical Paths under _main in COMMON

    _store_data->___ftdiv
    _store_data->___fttol
    _rtc1307_read->_i2c_send
    ___lwtoft->___ftpack
    ___ftmul->___lwtoft
    ___ftdiv->___ftpack
    _BCD2Dec->___bmul
    _printf->___lwdiv

Critical Paths under _main in BANK0

    _main->_store_data
    _store_data->___ftmul

Critical Paths under _main in BANK1

    None.

Critical Paths under _main in BANK3

    None.

Critical Paths under _main in BANK2

    None.

Call Graph Tables:

 ---------------------------------------------------------------------------------
 (Depth) Function   	        Calls       Base Space   Used Autos Params    Refs
 ---------------------------------------------------------------------------------
 (0) _main                                                 4     4      0    9654
                                             18 BANK0      4     4      0
                           _Asci2BCD
                            _BCD2Dec
                             ___wmul
                           _adc_init
                           _i2c_init
                           _i2c_send
                          _i2c_start
                           _i2c_stop
                             _printf
                       _rtc1307_read
                        _serial_init
                         _store_data
 ---------------------------------------------------------------------------------
 (1) _store_data                                           2     2      0    7212
                                             16 BANK0      2     2      0
                            _BCD2Dec
                            ___ftdiv
                            ___ftmul
                            ___fttol
                           ___lwtoft
                             ___wmul
                       _rtc1307_read
 ---------------------------------------------------------------------------------
 (2) _rtc1307_read                                         3     3      0      67
                                              1 COMMON     3     3      0
                            _i2c_nak
                           _i2c_read
                        _i2c_restart
                           _i2c_send
                          _i2c_start
                           _i2c_stop
 ---------------------------------------------------------------------------------
 (3) _i2c_stop                                             0     0      0       0
 ---------------------------------------------------------------------------------
 (3) _i2c_start                                            0     0      0       0
 ---------------------------------------------------------------------------------
 (3) _i2c_send                                             1     1      0      22
                                              0 COMMON     1     1      0
 ---------------------------------------------------------------------------------
 (3) _i2c_restart                                          0     0      0       0
 ---------------------------------------------------------------------------------
 (3) _i2c_read                                             0     0      0       0
 ---------------------------------------------------------------------------------
 (3) _i2c_nak                                              0     0      0       0
 ---------------------------------------------------------------------------------
 (2) ___wmul                                               6     2      4     516
                                              0 COMMON     6     2      4
 ---------------------------------------------------------------------------------
 (2) ___lwtoft                                             4     1      3    1721
                                              8 COMMON     4     1      3
                           ___ftpack
 ---------------------------------------------------------------------------------
 (2) ___fttol                                             14    10      4     305
                                              0 COMMON    14    10      4
 ---------------------------------------------------------------------------------
 (2) ___ftmul                                             16    10      6    2078
                                              0 BANK0     16    10      6
                           ___ftpack
                           ___lwtoft (ARG)
 ---------------------------------------------------------------------------------
 (2) ___ftdiv                                             16    10      6    2244
                                              8 COMMON     6     0      6
                                              0 BANK0     10    10      0
                           ___ftpack
 ---------------------------------------------------------------------------------
 (3) ___ftpack                                             8     3      5    1646
                                              0 COMMON     8     3      5
 ---------------------------------------------------------------------------------
 (2) _BCD2Dec                                              6     6      0     281
                                              4 COMMON     6     6      0
                             ___bmul
 ---------------------------------------------------------------------------------
 (3) ___bmul                                               4     3      1     145
                                              0 COMMON     4     3      1
 ---------------------------------------------------------------------------------
 (1) _serial_init                                          0     0      0       0
 ---------------------------------------------------------------------------------
 (1) _printf                                              15    13      2    1171
                                              8 COMMON     5     3      2
                                              0 BANK0     10    10      0
                            ___lwdiv
                              _putch
 ---------------------------------------------------------------------------------
 (2) _putch                                                1     1      0      22
                                              0 COMMON     1     1      0
 ---------------------------------------------------------------------------------
 (2) ___lwdiv                                              8     4      4     268
                                              0 COMMON     8     4      4
 ---------------------------------------------------------------------------------
 (1) _i2c_init                                             0     0      0       0
 ---------------------------------------------------------------------------------
 (1) _adc_init                                             0     0      0       0
 ---------------------------------------------------------------------------------
 (1) _Asci2BCD                                             7     6      1     295
                                              0 COMMON     7     6      1
 ---------------------------------------------------------------------------------
 Estimated maximum stack depth 3
 ---------------------------------------------------------------------------------

 Call Graph Graphs:

 _main (ROOT)
   _Asci2BCD
   _BCD2Dec
     ___bmul
   ___wmul
   _adc_init
   _i2c_init
   _i2c_send
   _i2c_start
   _i2c_stop
   _printf
     ___lwdiv
     _putch
   _rtc1307_read
     _i2c_nak
     _i2c_read
     _i2c_restart
     _i2c_send
     _i2c_start
     _i2c_stop
   _serial_init
   _store_data
     _BCD2Dec
       ___bmul
     ___ftdiv
       ___ftpack
     ___ftmul
       ___ftpack
       ___lwtoft (ARG)
         ___ftpack
     ___fttol
     ___lwtoft
       ___ftpack
     ___wmul
     _rtc1307_read
       _i2c_nak
       _i2c_read
       _i2c_restart
       _i2c_send
       _i2c_start
       _i2c_stop

 Address spaces:
Name               Size   Autos  Total    Cost      Usage
BANK3               60      0       0       9        0.0%
BITBANK3            60      0       0       8        0.0%
SFR3                 0      0       0       4        0.0%
BITSFR3              0      0       0       4        0.0%
BANK2               60      0       0      11        0.0%
BITBANK2            60      0       0      10        0.0%
SFR2                 0      0       0       5        0.0%
BITSFR2              0      0       0       5        0.0%
BANK1               50      0       0       7        0.0%
BITBANK1            50      0       0       6        0.0%
SFR1                 0      0       0       2        0.0%
BITSFR1              0      0       0       2        0.0%
BANK0               50     16      4C       5       95.0%
BITBANK0            50      0       0       4        0.0%
SFR0                 0      0       0       1        0.0%
BITSFR0              0      0       0       1        0.0%
COMMON               E      E       E       1      100.0%
BITCOMMON            E      0       0       0        0.0%
CODE                 0      0       0       0        0.0%
DATA                 0      0      5A      12        0.0%
ABS                  0      0      5A       3        0.0%
NULL                 0      0       0       0        0.0%
STACK                0      0       0       2        0.0%
EEDATA             100      0       0       0        0.0%


Microchip Technology PIC Macro Assembler V1.33 build 59893 
Symbol Table                                                                                   Mon Nov 10 14:03:59 2014

                      _H 002D                        _M 0031                        _S 0035  
                      _h 0044                        _m 0048                        _s 004E  
                      pc 0002           ___bmul@product 0072                       _GO 00FA  
                     _h1 0045                       _m1 0049                       _s1 004F  
                     fsr 0004      ___wmul@multiplicand 0072                      l164 06FB  
                    l190 0EA8                      l167 070A                      _ADH 003C  
                    l199 0442                      _ADL 003D                      l810 0EC8  
                    l822 0ED2          __end_of_BCD2Dec 0F93                      l840 0EDD  
                    l816 0EBE                      l834 0EE7                      l828 0EB5  
                    l870 02B5                      l954 0F55                      _RA1 0029  
                    _RA2 002A                      _RA3 002B                      _RA4 002C  
                    _RD0 0040                      _RD1 0041                      _H_1 002F  
                    _PEN 048A                      _M_1 0033                      _SEN 0488  
                    u965 0127                      u985 0142                      _S_1 0037  
                    _min 004A                      _ref 0069                      _sec 0050  
                    _val 0028                      _pot 004D                      fsr0 0004  
                    indf 0000             ___ftdiv@cntr 0057             ___ftdiv@sign 005C  
                   l1121 0162                     l1115 0149                     l2011 0329  
                   l2101 01C5                     l2111 01ED                     l2103 01D5  
                   l2033 0384                     l2113 01F0                     l2131 0FCA  
                   l2019 0348                     l2051 03D9                     l2133 0FD8  
                   l2117 01FE                     l2109 01E2                     l2143 0FF9  
                   l2223 0240                     l2063 0401                     l2055 03E9  
                   l2039 039A                     l2311 060A                     l2241 0272  
                   l2233 0251                     l2217 022B                     l2139 0FEE  
                   l2251 020E                     l2067 0411                     l2083 0193  
                   l2403 07C3                     l2249 0276                     l2409 07D6  
                   l2361 0714                     l2345 06D8                     l2391 079D  
                   l2383 0777                     _ADC1 003B                     l1921 0133  
                   l1913 011B                     l1917 0122                     l2397 07B0  
                   l1927 014E                     l1919 012E                     l1929 0158  
                   l1895 0F09                     l1991 02CE                     l1975 0F4D  
                   l1899 0F0F                     l1997 02E4                     _DATA 0020  
                   STR_1 0030                     STR_2 00F0                     STR_3 00E7  
                   STR_4 00F0                     STR_5 00F0                     STR_6 0011  
                   STR_7 00F4                     STR_8 00F0                     STR_9 00A3  
                   _BRGH 04C2                     _CREN 00C4                     u1005 0151  
                   u1035 0169                     u1055 0F72                     u1135 02F6  
                   u1215 03A6                     u1145 0308                     u1305 0412  
                   u1225 03B8                     u1155 032A                     u1315 041A  
                   u1165 033B                     u1405 01E4                     u1085 0F56  
                   u1175 0349                     u1255 03EA                     u1095 0F5D  
                   u1265 03F2                     u1345 019A                     u1445 0FCD  
                   u1535 0268                     u1375 01C6                     u1465 0FD9  
                   u1475 0FE5                     u1707 05E2                     u1485 0FEF  
                   u1717 0612                     u1575 0F35                     u1697 0593  
                   _RCEN 048B                     _RCIF 0065                     _SPEN 00C7  
                   _RSEN 0489                     _TXEN 04C5                     _TXIF 0064  
                   _Diff 002B                     _date 0042                     _main 0575  
           ___ftpack@arg 0070                     _hour 0046             ___ftpack@exp 0073  
                   _year 0052                     btemp 007E                     ltemp 007E  
                   start 0000                     ttemp 007E                     wtemp 007E  
      ___bmul@multiplier 0073             ___ftmul@cntr 0061            ??_i2c_restart 0070  
           ___ftmul@sign 0062          __end_of_i2c_nak 0EE1            ?_rtc1307_read 0070  
           ___fttol@exp1 007D             ___fttol@lval 0079                    ?_main 0070  
                  _ACKEN 048C                    _ACKDT 048D                    STR_10 004A  
                  STR_11 00F0                    STR_20 00F0                    STR_12 00B4  
                  STR_21 0092                    STR_13 005C                    STR_14 00F0  
                  STR_15 00C5                    STR_16 006E                    STR_17 00F0  
                  STR_18 00D6                    STR_19 0080          __end_of___ftdiv 036C  
        __end_of___ftmul 043F          __end_of___fttol 0207          __end_of___lwdiv 1000  
                  _RCREG 001A                    _SPBRG 0099                    _PORTD 0008  
                  _TRISA 0085                    _TRISD 0088                    _SSPIF 0063  
                  _TXREG 0019                    _TXSTA 0098              i2c_send@dat 0070  
                  _min_1 004B                    _enter 0043                    _sec_1 0051  
                  _month 004C            ___ftpack@sign 0074                    _putch 0EA7  
                  main@i 0068                    pclath 000A                    ltemp0 007E  
                  ltemp1 0082                    ltemp2 0086                    ltemp3 0080  
       __end_of_Asci2BCD 0F4B                    ttemp0 007E                    ttemp1 0081  
                  ttemp2 0084                    ttemp3 0087                    ttemp4 007F  
                  status 0003                    wtemp0 007E                    wtemp1 0080  
                  wtemp2 0082                    wtemp3 0084                    wtemp4 0086  
                  wtemp5 0088                    wtemp6 007F          __initialization 07E3  
         ??_rtc1307_read 0071             __end_of_main 07E3                ??_BCD2Dec 0074  
       __end_of_i2c_init 0F07         __end_of_i2c_read 0EEC         __end_of_i2c_send 0EB8  
       __end_of_i2c_stop 0ED6      __end_of_i2c_restart 0EC2                   ??_main 0065  
          ___fttol@sign1 0078                   _ADCON0 001F                   _ADCON1 009F  
                 _ADRESH 001E                   _ADRESL 009E                   ?_putch 0070  
       __end_of___ftpack 017B         __end_of_adc_init 0EF9         __end_of___lwtoft 0113  
                 _SSPADD 0093                   _TRISC3 043B                   _TRISC4 043C  
                 _TRISC6 043E                   _TRISC7 043F                   _SSPCON 0014  
                 _SSPBUF 0013       __size_of_i2c_start 000A                ??_i2c_nak 0070  
           ?_serial_init 0070                   ___bmul 0F07                   ___wmul 0F4B  
              ??___ftdiv 0053                ??___ftmul 0059                ??___fttol 0074  
              ??___lwdiv 0074                   _hour_1 0047                   _printf 0207  
  ___ftmul@f3_as_product 005E               BCD2Dec@bcd 0078  __end_of__initialization 07FC  
             BCD2Dec@ten 0079               ___ftdiv@f1 007B               ___ftdiv@f2 0078  
             ___ftdiv@f3 0058      ___bmul@multiplicand 0070               ___ftmul@f1 0053  
             ___ftmul@f2 0056               ___fttol@f1 0070           __pcstackCOMMON 0070  
            _i2c_restart 0EB8             __pidataBANK0 0EA4            __end_of_putch 0EAF  
             ___lwtoft@c 0078        __end_of_i2c_start 0ECC                ?_Asci2BCD 0070  
   __end_of_rtc1307_read 0FC2                  ??_putch 0070               __pbssBANK0 0020  
              ?_i2c_init 0070                ?_i2c_read 0070                ?_i2c_send 0070  
              ?_i2c_stop 0070               __pmaintext 0575                  ?___bmul 0070  
                ?___wmul 0070                  _BCD2Dec 0F6E                ?___ftpack 0070  
                ?_printf 0078                ?_adc_init 0070                ?___lwtoft 0078  
             ??_Asci2BCD 0071                  _SSPSTAT 0094               __stringtab 0003  
             ??_i2c_init 0070               ??_i2c_read 0070               ??_i2c_send 0070  
             ??_i2c_stop 0070                  _i2c_nak 0ED6          __size_of___bmul 0011  
                ___ftdiv 02B6          __size_of___wmul 0023                  ___ftmul 036C  
                ___fttol 017B                  ___lwdiv 0FC2     __size_of_serial_init 0014  
             ??___ftpack 0075               ??_adc_init 0070                  __ptext1 043F  
                __ptext2 0F93                  __ptext3 0ECC                  __ptext4 0EC2  
                __ptext5 0EAF                  __ptext6 0EB8                  __ptext7 0EE1  
                __ptext8 0ED6                  __ptext9 0F4B                Asci2BCD@L 0074  
              Asci2BCD@U 0076          __size_of_printf 00AF               ??___lwtoft 007B  
      __end_of_hexpowers 0011                  clrloop0 00F8     end_of_initialization 07FC  
                printf@c 005B                  printf@f 005C    __size_of_rtc1307_read 002F  
       rtc1307_read@temp 0073              BCD2Dec@temp 0077              BCD2Dec@unit 0076  
            ___ftdiv@exp 005B               _store_data 043F              ___ftmul@exp 005D  
           ?_i2c_restart 0070             _rtc1307_read 0F93           __end_of___bmul 0F18  
         __end_of___wmul 0F6E           __end_of_printf 02B6      start_initialization 07E3  
      __size_of_Asci2BCD 001F                _i2c_start 0EC2        __size_of_i2c_init 000E  
      __size_of_i2c_read 000B        __size_of_i2c_send 0009        __size_of_i2c_stop 000A  
               ??___bmul 0071                 ??___wmul 0074                 ?_BCD2Dec 0070  
            __pdataBANK0 0069                 ??_printf 007A        __size_of___ftpack 0068  
      __size_of_adc_init 000D                ___latbits 0002        __size_of___lwtoft 0014  
          __pcstackBANK0 0053               ?_i2c_start 0070      __end_of__stringdata 00F7  
              _adc_value 0039                 ?_i2c_nak 0070         ___lwdiv@dividend 0072  
            ?_store_data 0070                 ?___ftdiv 0078                 ?___ftmul 0053  
               ?___fttol 0070                 ?___lwdiv 0070              Asci2BCD@chr 0075  
              __pstrings 0003                _hexpowers 0009         ___lwdiv@quotient 0075  
         __size_of_putch 0008           ___wmul@product 0074                clear_ram0 00F7  
          Asci2BCD@lower 0070            Asci2BCD@upper 0073            ??_serial_init 0070  
   __size_of_i2c_restart 000A         __size_of_BCD2Dec 0025              __stringbase 0008  
            __stringdata 0011        ___wmul@multiplier 0070                 _Asci2BCD 0F2C  
             printf@_val 0056               printf@flag 0053               printf@prec 005A  
            ??_i2c_start 0070      __size_of_store_data 0136                 _i2c_init 0EF9  
               _i2c_read 0EE1                 _i2c_send 0EAF                 _i2c_stop 0ECC  
               _Button_1 003E                 _Button_2 003F                 _Button_3 0040  
               _Button_4 0041         __size_of_i2c_nak 000B         __size_of___ftdiv 00B6  
       __size_of___ftmul 00D3         __size_of___fttol 008C         __size_of___lwdiv 003E  
               ___ftpack 0113      __end_of_serial_init 0F2C       __end_of__stringtab 0009  
               _adc_init 0EEC                 ___lwtoft 00FF          ___lwdiv@divisor 0070  
        ___lwdiv@counter 0077                 __ptext10 00FF                 __ptext11 017B  
               __ptext20 0FC2                 __ptext12 036C                 __ptext21 0EF9  
               __ptext13 02B6                 __ptext22 0EEC                 __ptext14 0113  
               __ptext23 0F2C                 __ptext15 0F6E                 __ptext16 0F07  
               __ptext17 0F18                 __ptext18 0207                 __ptext19 0EA7  
          __size_of_main 026E                printf@idx 0054                putch@byte 0070  
              stringcode 0003             ??_store_data 0063              _serial_init 0F18  
               printf@ap 0055                 stringdir 0003                 stringtab 0003  
    rtc1307_read@address 0072       __end_of_store_data 0575  
